	.cpu generic+fp+simd
	.file	"hisi_freq_ctl.c"
	.text
.Ltext0:
	.cfi_sections	.debug_frame
	.align	2
	.type	delete_freq_req_work, %function
delete_freq_req_work:
.LFB2524:
	.file 1 "/mnt/disk/jenkins/ci/workspace/chipset_YAL_patch_01/opensource/component_code/vendor/huawei/extra/build/build_script/kirin_kernel_release/kernel/block/hisi_freq_ctl.c"
	.loc 1 263 0
	.cfi_startproc
.LVL0:
	stp	x29, x30, [sp, -32]!
	.cfi_def_cfa_offset 32
	.cfi_offset 29, -32
	.cfi_offset 30, -24
	add	x29, sp, 0
	.cfi_def_cfa_register 29
	str	x19, [sp,16]
	.cfi_offset 19, -16
	.loc 1 264 0
	adrp	x19, .LANCHOR0
	ldr	x0, [x19,#:lo12:.LANCHOR0]
.LVL1:
	cbz	x0, .L1
	.loc 1 264 0 is_stmt 0 discriminator 1
	ldr	x1, [x0,128]
	cbz	x1, .L1
	.loc 1 268 0 is_stmt 1
	ldr	x1, [x0,264]
	ldr	x1, [x1,8]
	cbz	x1, .L3
	.loc 1 268 0 is_stmt 0 discriminator 1
	ldr	x1, [x0,104]
	cbz	x1, .L1
.L3:
	.loc 1 273 0 is_stmt 1
	add	x0, x0, 24
	bl	mutex_lock
.LVL2:
	.loc 1 274 0
	ldr	x0, [x19,#:lo12:.LANCHOR0]
	.loc 1 275 0
	ldr	x1, [x0,264]
	.loc 1 274 0
	str	wzr, [x0,96]
	.loc 1 275 0
	ldr	x2, [x1,16]
	cbz	x2, .L4
	.loc 1 276 0
	ldr	x0, [x0,104]
	blr	x2
.LVL3:
	adrp	x0, .LANCHOR0
	ldr	x0, [x0,#:lo12:.LANCHOR0]
	ldr	x1, [x0,264]
.L4:
	.loc 1 278 0
	ldr	x1, [x1,32]
	cbz	x1, .L5
	.loc 1 279 0
	blr	x1
.LVL4:
	ldr	x0, [x19,#:lo12:.LANCHOR0]
.L5:
	.loc 1 280 0
	str	wzr, [x0,112]
	.loc 1 281 0
	add	x0, x0, 24
	bl	mutex_unlock
.LVL5:
.L1:
	.loc 1 283 0
	ldr	x19, [sp,16]
	.cfi_restore 19
	ldp	x29, x30, [sp], 32
	.cfi_restore 30
	.cfi_restore 29
	.cfi_def_cfa 31, 0
	ret
	.cfi_endproc
.LFE2524:
	.size	delete_freq_req_work, .-delete_freq_req_work
	.align	2
	.type	hisi_blk_freq_ctrl_work, %function
hisi_blk_freq_ctrl_work:
.LFB2525:
	.loc 1 286 0
	.cfi_startproc
.LVL6:
	stp	x29, x30, [sp, -64]!
	.cfi_def_cfa_offset 64
	.cfi_offset 29, -64
	.cfi_offset 30, -56
	add	x29, sp, 0
	.cfi_def_cfa_register 29
	stp	x19, x20, [sp,16]
	.cfi_offset 19, -48
	.cfi_offset 20, -40
	.loc 1 291 0
	adrp	x20, .LANCHOR0
	.loc 1 286 0
	str	x23, [sp,48]
	stp	x21, x22, [sp,32]
	.cfi_offset 23, -16
	.cfi_offset 21, -32
	.cfi_offset 22, -24
	.loc 1 291 0
	ldr	x0, [x20,#:lo12:.LANCHOR0]
.LVL7:
	cbz	x0, .L25
	.loc 1 291 0 is_stmt 0 discriminator 1
	ldr	x1, [x0,128]
	cbz	x1, .L25
	.loc 1 294 0 is_stmt 1
	ldr	x1, [x0,264]
	ldr	x1, [x1,8]
	cbz	x1, .L27
	.loc 1 294 0 is_stmt 0 discriminator 1
	ldr	x1, [x0,104]
	cbz	x1, .L25
.L27:
	.loc 1 298 0 is_stmt 1 discriminator 1
	bl	_raw_spin_lock_irqsave
.LVL8:
.LBB132:
.LBB133:
	.file 2 "/mnt/disk/jenkins/ci/workspace/chipset_YAL_patch_01/opensource/component_code/vendor/huawei/extra/build/build_script/kirin_kernel_release/kernel/include/linux/spinlock.h"
	.loc 2 362 0
	mov	x1, x0
.LBE133:
.LBE132:
	.loc 1 299 0
	ldr	x2, [x20,#:lo12:.LANCHOR0]
	adrp	x22, .LANCHOR0
.LBB136:
.LBB134:
	.loc 2 362 0
	mov	x0, x2
.LVL9:
.LBE134:
.LBE136:
	.loc 1 299 0
	ldr	w21, [x2,272]
	.loc 1 300 0
	ldr	w23, [x2,276]
.LBB137:
.LBB135:
	.loc 2 362 0
	bl	_raw_spin_unlock_irqrestore
.LVL10:
.LBE135:
.LBE137:
	.loc 1 303 0
	ldr	x0, [x20,#:lo12:.LANCHOR0]
	add	x0, x0, 24
	bl	mutex_lock
.LVL11:
	.loc 1 305 0
	ldr	x19, [x20,#:lo12:.LANCHOR0]
	ldr	w0, [x19,96]
	cmp	w0, 1
	beq	.L66
.LVL12:
	.loc 1 313 0
	cmp	w21, 1
	beq	.L31
.L40:
	.loc 1 353 0
	cbnz	w0, .L37
	.loc 1 359 0
	ldr	w0, [x19,116]
.LVL13:
	cmp	w23, w0
	blt	.L38
	.loc 1 360 0
	str	wzr, [x19,116]
.L33:
	.loc 1 380 0
	add	x0, x19, 24
	bl	mutex_unlock
.LVL14:
.L25:
	.loc 1 382 0
	ldp	x19, x20, [sp,16]
	.cfi_remember_state
	.cfi_restore 20
	.cfi_restore 19
	ldp	x21, x22, [sp,32]
	.cfi_restore 22
	.cfi_restore 21
.LVL15:
	ldr	x23, [sp,48]
	.cfi_restore 23
.LVL16:
	ldp	x29, x30, [sp], 64
	.cfi_restore 30
	.cfi_restore 29
	.cfi_def_cfa 31, 0
	ret
.L66:
	.cfi_restore_state
	.loc 1 306 0
	ldr	x0, [x19,264]
	ldr	x2, [x0]
	cbnz	x2, .L67
.LVL17:
	.loc 1 313 0
	cmp	w21, 1
	beq	.L39
.L37:
	.loc 1 370 0
	ldr	w0, [x19,112]
	cbnz	w0, .L33
	.loc 1 371 0
	mov	w3, 1
.LBB138:
.LBB139:
	.file 3 "/mnt/disk/jenkins/ci/workspace/chipset_YAL_patch_01/opensource/component_code/vendor/huawei/extra/build/build_script/kirin_kernel_release/kernel/include/linux/workqueue.h"
	.loc 3 492 0
	ldr	x1, [x19,128]
.LBE139:
.LBE138:
	.loc 1 371 0
	str	w3, [x19,112]
.LBB141:
.LBB140:
	.loc 3 492 0
	add	x2, x19, 168
	mov	w0, 8
	mov	x3, 88
	bl	queue_delayed_work_on
.LVL18:
.L65:
	ldr	x19, [x20,#:lo12:.LANCHOR0]
.LBE140:
.LBE141:
	.loc 1 380 0
	add	x0, x19, 24
	bl	mutex_unlock
.LVL19:
	b	.L25
.LVL20:
.L67:
	.loc 1 308 0
	ldr	w0, [x19,120]
	ldr	x1, [x19,104]
	blr	x2
.LVL21:
	.loc 1 307 0
	str	w0, [x19,120]
	.loc 1 314 0
	ldr	x19, [x22,#:lo12:.LANCHOR0]
.LVL22:
	.loc 1 313 0
	cmp	w21, 1
	.loc 1 314 0
	ldr	w0, [x19,96]
	.loc 1 313 0
	bne	.L40
	.loc 1 314 0
	cmp	w0, 1
	beq	.L39
.L31:
	.loc 1 336 0
	ldr	w0, [x19,116]
.LVL23:
	add	w23, w23, w0
.LVL24:
	str	w23, [x19,116]
	.loc 1 338 0
	cmp	w23, 99
	ble	.L65
	.loc 1 340 0
	ldr	x0, [x19,264]
	ldr	x1, [x0,8]
	cbz	x1, .L35
	.loc 1 342 0
	ldr	x0, [x19,104]
	blr	x1
.LVL25:
	.loc 1 341 0
	str	w0, [x19,120]
.L35:
	.loc 1 344 0
	ldr	x19, [x20,#:lo12:.LANCHOR0]
	ldr	x0, [x19,264]
	ldr	x0, [x0,24]
	cbz	x0, .L36
	.loc 1 345 0
	blr	x0
.LVL26:
	adrp	x0, .LANCHOR0
	ldr	x19, [x0,#:lo12:.LANCHOR0]
.L36:
	.loc 1 348 0
	mov	w0, 1
	.loc 1 349 0
	str	wzr, [x19,116]
	.loc 1 348 0
	str	w0, [x19,96]
	b	.L33
.LVL27:
.L38:
	.loc 1 362 0
	sub	w0, w0, w23
	str	w0, [x19,116]
	.loc 1 380 0
	add	x0, x19, 24
	bl	mutex_unlock
.LVL28:
	b	.L25
.LVL29:
.L39:
	.loc 1 321 0
	ldr	w0, [x19,112]
	cbz	w0, .L65
	.loc 1 322 0
	add	x0, x19, 24
	bl	mutex_unlock
.LVL30:
	.loc 1 323 0
	ldr	x0, [x20,#:lo12:.LANCHOR0]
	add	x0, x0, 168
	bl	cancel_delayed_work_sync
.LVL31:
	.loc 1 325 0
	ldr	x0, [x20,#:lo12:.LANCHOR0]
	add	x0, x0, 24
	bl	mutex_lock
.LVL32:
	.loc 1 326 0
	ldr	x19, [x20,#:lo12:.LANCHOR0]
	str	wzr, [x19,112]
	b	.L33
	.cfi_endproc
.LFE2525:
	.size	hisi_blk_freq_ctrl_work, .-hisi_blk_freq_ctrl_work
	.align	2
	.type	cpu_freq_request_remove, %function
cpu_freq_request_remove:
.LFB2523:
	.loc 1 207 0
	.cfi_startproc
	stp	x29, x30, [sp, -16]!
	.cfi_def_cfa_offset 16
	.cfi_offset 29, -16
	.cfi_offset 30, -8
.LBB142:
.LBB143:
	.loc 1 153 0
	mov	w0, 0
.LBE143:
.LBE142:
	.loc 1 207 0
	add	x29, sp, 0
	.cfi_def_cfa_register 29
.LBB145:
.LBB144:
	.loc 1 153 0
	bl	sched_set_io_is_busy
.LVL33:
.LBE144:
.LBE145:
	.loc 1 212 0
	bl	get_bootdevice_type
.LVL34:
	cbz	w0, .L68
.LBB146:
.LBB147:
	.loc 1 153 0
	mov	w0, 0
	bl	sched_set_io_is_busy
.LVL35:
.L68:
.LBE147:
.LBE146:
	.loc 1 218 0
	ldp	x29, x30, [sp], 16
	.cfi_restore 30
	.cfi_restore 29
	.cfi_def_cfa 31, 0
	ret
	.cfi_endproc
.LFE2523:
	.size	cpu_freq_request_remove, .-cpu_freq_request_remove
	.align	2
	.type	cpu_freq_request_add, %function
cpu_freq_request_add:
.LFB2522:
	.loc 1 189 0
	.cfi_startproc
	stp	x29, x30, [sp, -16]!
	.cfi_def_cfa_offset 16
	.cfi_offset 29, -16
	.cfi_offset 30, -8
.LBB148:
.LBB149:
	.loc 1 113 0
	mov	w0, 1
.LBE149:
.LBE148:
	.loc 1 189 0
	add	x29, sp, 0
	.cfi_def_cfa_register 29
.LBB151:
.LBB150:
	.loc 1 113 0
	bl	sched_set_io_is_busy
.LVL36:
.LBE150:
.LBE151:
	.loc 1 194 0
	bl	get_bootdevice_type
.LVL37:
	cbz	w0, .L73
.LBB152:
.LBB153:
	.loc 1 113 0
	mov	w0, 1
	bl	sched_set_io_is_busy
.LVL38:
.L73:
.LBE153:
.LBE152:
	.loc 1 200 0
	ldp	x29, x30, [sp], 16
	.cfi_restore 30
	.cfi_restore 29
	.cfi_def_cfa 31, 0
	ret
	.cfi_endproc
.LFE2522:
	.size	cpu_freq_request_add, .-cpu_freq_request_add
	.align	2
	.global	hisi_blk_freq_request
	.type	hisi_blk_freq_request, %function
hisi_blk_freq_request:
.LFB2526:
	.loc 1 385 0
	.cfi_startproc
.LVL39:
	stp	x29, x30, [sp, -48]!
	.cfi_def_cfa_offset 48
	.cfi_offset 29, -48
	.cfi_offset 30, -40
	add	x29, sp, 0
	.cfi_def_cfa_register 29
	stp	x19, x20, [sp,16]
	.cfi_offset 19, -32
	.cfi_offset 20, -24
	.loc 1 387 0
	adrp	x19, .LANCHOR0
	.loc 1 385 0
	str	x21, [sp,32]
	.cfi_offset 21, -16
	.loc 1 387 0
	ldr	x2, [x19,#:lo12:.LANCHOR0]
	cbz	x2, .L78
	.loc 1 387 0 is_stmt 0 discriminator 1
	ldr	x3, [x2,128]
	cbz	x3, .L78
	.loc 1 391 0 is_stmt 1
	ldr	x3, [x2,264]
	ldr	x3, [x3,8]
	cbz	x3, .L80
	.loc 1 391 0 is_stmt 0 discriminator 1
	ldr	x3, [x2,104]
	cbz	x3, .L78
.L80:
	mov	w21, w0
	.loc 1 395 0 is_stmt 1 discriminator 1
	mov	x0, x2
.LVL40:
	mov	w20, w1
	bl	_raw_spin_lock_irqsave
.LVL41:
.LBB154:
.LBB155:
	.loc 2 362 0
	mov	x1, x0
.LBE155:
.LBE154:
	.loc 1 396 0
	ldr	x2, [x19,#:lo12:.LANCHOR0]
.LBB158:
.LBB156:
	.loc 2 362 0
	mov	x0, x2
.LVL42:
.LBE156:
.LBE158:
	.loc 1 396 0
	str	w21, [x2,272]
	.loc 1 397 0
	str	w20, [x2,276]
.LBB159:
.LBB157:
	.loc 2 362 0
	bl	_raw_spin_unlock_irqrestore
.LVL43:
.LBE157:
.LBE159:
	.loc 1 400 0
	ldr	x1, [x19,#:lo12:.LANCHOR0]
.LBB160:
.LBB161:
	.loc 3 477 0
	mov	w0, 8
	add	x2, x1, 136
	ldr	x1, [x1,128]
	bl	queue_work_on
.LVL44:
.L78:
.LBE161:
.LBE160:
	.loc 1 402 0
	ldp	x19, x20, [sp,16]
	.cfi_restore 20
	.cfi_restore 19
	ldr	x21, [sp,32]
	.cfi_restore 21
	ldp	x29, x30, [sp], 48
	.cfi_restore 30
	.cfi_restore 29
	.cfi_def_cfa 31, 0
	ret
	.cfi_endproc
.LFE2526:
	.size	hisi_blk_freq_request, .-hisi_blk_freq_request
	.align	2
	.global	hisi_blk_freq_ctrl_init
	.type	hisi_blk_freq_ctrl_init, %function
hisi_blk_freq_ctrl_init:
.LFB2527:
	.loc 1 405 0
	.cfi_startproc
	stp	x29, x30, [sp, -48]!
	.cfi_def_cfa_offset 48
	.cfi_offset 29, -48
	.cfi_offset 30, -40
	add	x29, sp, 0
	.cfi_def_cfa_register 29
	stp	x19, x20, [sp,16]
	.cfi_offset 19, -32
	.cfi_offset 20, -24
	.loc 1 407 0
	adrp	x20, .LANCHOR0
	.loc 1 405 0
	str	x21, [sp,32]
	.cfi_offset 21, -16
	.loc 1 407 0
	add	x21, x20, :lo12:.LANCHOR0
	ldr	x19, [x20,#:lo12:.LANCHOR0]
	cbz	x19, .L104
.L94:
	.loc 1 425 0
	adrp	x0, .LANCHOR2
	add	x0, x0, :lo12:.LANCHOR2
	str	x0, [x19,264]
	.loc 1 427 0
	ldr	x0, [x0,8]
	cbz	x0, .L97
	.loc 1 428 0
	ldr	x0, [x19,104]
	cbz	x0, .L105
.L97:
	.loc 1 438 0
	ldr	x0, [x19,128]
	cbz	x0, .L106
.L96:
.L93:
	.loc 1 463 0
	ldp	x19, x20, [sp,16]
	.cfi_remember_state
	.cfi_restore 20
	.cfi_restore 19
	ldr	x21, [sp,32]
	.cfi_restore 21
	ldp	x29, x30, [sp], 48
	.cfi_restore 30
	.cfi_restore 29
	.cfi_def_cfa 31, 0
	ret
.L106:
	.cfi_restore_state
	.loc 1 440 0
	mov	w1, 10
	adrp	x0, .LC5
	adrp	x5, .LC6
	mov	x4, 0
	movk	w1, 0xe, lsl 16
	add	x0, x0, :lo12:.LC5
	mov	w2, 1
	mov	x3, 0
	add	x5, x5, :lo12:.LC6
	.loc 1 441 0
	adrp	x21, .LANCHOR0
	.loc 1 440 0
	bl	__alloc_workqueue_key
.LVL45:
	.loc 1 439 0
	str	x0, [x19,128]
	.loc 1 441 0
	ldr	x4, [x20,#:lo12:.LANCHOR0]
	ldr	x0, [x4,128]
	cbz	x0, .L107
	.loc 1 445 0
	add	x1, x4, 144
	.loc 1 446 0
	add	x5, x4, 176
.LBB162:
.LBB163:
.LBB164:
.LBB165:
.LBB166:
	.file 4 "/mnt/disk/jenkins/ci/workspace/chipset_YAL_patch_01/opensource/component_code/vendor/huawei/extra/build/build_script/kirin_kernel_release/kernel/include/linux/compiler.h"
	.loc 4 276 0
	str	x1, [x4,144]
.LBE166:
.LBE165:
.LBE164:
.LBE163:
.LBE162:
	.loc 1 445 0
	adrp	x2, hisi_blk_freq_ctrl_work
	mov	x3, 68719476704
.LBB168:
.LBB169:
.LBB170:
.LBB171:
.LBB172:
	.loc 4 276 0
	str	x5, [x4,176]
.LBE172:
.LBE171:
.LBE170:
	.file 5 "/mnt/disk/jenkins/ci/workspace/chipset_YAL_patch_01/opensource/component_code/vendor/huawei/extra/build/build_script/kirin_kernel_release/kernel/include/linux/list.h"
	.loc 5 28 0
	str	x5, [x4,184]
.LBE169:
.LBE168:
	.loc 1 445 0
	add	x2, x2, :lo12:hisi_blk_freq_ctrl_work
	.loc 1 446 0
	adrp	x5, delete_freq_req_work
	.loc 1 445 0
	str	x3, [x4,136]
	.loc 1 446 0 discriminator 2
	add	x0, x4, 200
.LBB173:
.LBB167:
	.loc 5 28 0
	str	x1, [x4,152]
.LBE167:
.LBE173:
	.loc 1 445 0
	str	x2, [x4,160]
	.loc 1 446 0
	add	x5, x5, :lo12:delete_freq_req_work
	str	x3, [x4,168]
	.loc 1 446 0 is_stmt 0 discriminator 2
	mov	w1, 2097152
	mov	x2, 0
	mov	x3, 0
	.loc 1 446 0
	str	x5, [x4,192]
	.loc 1 446 0 discriminator 2
	bl	init_timer_key
.LVL46:
	.loc 1 446 0
	ldr	x0, [x21,#:lo12:.LANCHOR0]
	adrp	x1, delayed_work_timer_fn
	add	x1, x1, :lo12:delayed_work_timer_fn
	add	x2, x0, 168
	str	x1, [x0,224]
	str	x2, [x0,232]
	.loc 1 463 0 is_stmt 1
	ldp	x19, x20, [sp,16]
	.cfi_remember_state
	.cfi_restore 19
	.cfi_restore 20
	ldr	x21, [sp,32]
	.cfi_restore 21
	ldp	x29, x30, [sp], 48
	.cfi_restore 29
	.cfi_restore 30
	.cfi_def_cfa 31, 0
	ret
.L104:
	.cfi_restore_state
.LBB174:
.LBB175:
.LBB176:
	.file 6 "/mnt/disk/jenkins/ci/workspace/chipset_YAL_patch_01/opensource/component_code/vendor/huawei/extra/build/build_script/kirin_kernel_release/kernel/include/linux/slab.h"
	.loc 6 499 0
	adrp	x0, kmalloc_caches+72
	mov	w1, 32960
	movk	w1, 0x240, lsl 16
	mov	x2, 280
	ldr	x0, [x0,#:lo12:kmalloc_caches+72]
	bl	kmem_cache_alloc_trace
.LVL47:
.LBE176:
.LBE175:
.LBE174:
	.loc 1 408 0
	str	x0, [x20,#:lo12:.LANCHOR0]
	.loc 1 409 0
	cbz	x0, .L108
	.loc 1 413 0
	adrp	x1, .LANCHOR1
	adrp	x0, .LC1
	mov	w3, 350
	add	x1, x1, :lo12:.LANCHOR1
	mov	w2, 100
	add	x0, x0, :lo12:.LC1
.LBB177:
	.loc 1 421 0 discriminator 1
	add	x21, x21, 8
.LBE177:
	.loc 1 413 0
	bl	printk
.LVL48:
.LBB178:
	.loc 1 421 0 discriminator 1
	ldr	x0, [x20,#:lo12:.LANCHOR0]
	adrp	x1, .LC2
	add	x1, x1, :lo12:.LC2
	mov	x2, x21
	bl	__raw_spin_lock_init
.LVL49:
.LBE178:
.LBB179:
	.loc 1 422 0
	ldr	x0, [x20,#:lo12:.LANCHOR0]
	adrp	x1, .LC3
	mov	x2, x21
	add	x1, x1, :lo12:.LC3
	add	x0, x0, 24
	bl	__mutex_init
.LVL50:
	ldr	x19, [x20,#:lo12:.LANCHOR0]
	b	.L94
.L105:
.LBE179:
.LBB180:
.LBB181:
	.loc 6 499 0
	adrp	x0, kmalloc_caches+16
	mov	w1, 192
	movk	w1, 0x240, lsl 16
	mov	x2, 144
	ldr	x0, [x0,#:lo12:kmalloc_caches+16]
	bl	kmem_cache_alloc_trace
.LVL51:
.LBE181:
.LBE180:
	.loc 1 429 0
	str	x0, [x19,104]
	.loc 1 431 0
	ldr	x19, [x20,#:lo12:.LANCHOR0]
	ldr	x0, [x19,104]
	cbnz	x0, .L97
	.loc 1 432 0
	adrp	x0, .LC4
	adrp	x1, .LANCHOR1
	add	x1, x1, :lo12:.LANCHOR1
	add	x0, x0, :lo12:.LC4
	bl	printk
.LVL52:
	.loc 1 433 0
	b	.L98
.L108:
	.loc 1 410 0
	adrp	x0, .LC0
	adrp	x1, .LANCHOR1
	add	x1, x1, :lo12:.LANCHOR1
	add	x0, x0, :lo12:.LC0
	bl	printk
.LVL53:
	.loc 1 411 0
	b	.L93
.L107:
	.loc 1 442 0
	adrp	x0, .LC7
	adrp	x1, .LANCHOR1
	add	x0, x0, :lo12:.LC7
	add	x1, x1, :lo12:.LANCHOR1
	bl	printk
.LVL54:
	.loc 1 451 0
	ldr	x0, [x21,#:lo12:.LANCHOR0]
	ldr	x0, [x0,104]
	cbz	x0, .L98
	.loc 1 452 0
	bl	kfree
.LVL55:
	.loc 1 453 0
	ldr	x0, [x21,#:lo12:.LANCHOR0]
	str	xzr, [x0,104]
.L98:
	.loc 1 457 0
	ldr	x0, [x20,#:lo12:.LANCHOR0]
	bl	kfree
.LVL56:
	.loc 1 458 0
	str	xzr, [x20,#:lo12:.LANCHOR0]
	b	.L93
	.cfi_endproc
.LFE2527:
	.size	hisi_blk_freq_ctrl_init, .-hisi_blk_freq_ctrl_init
	.section	.rodata
	.align	3
.LANCHOR1 = . + 0
	.type	__func__.33351, %object
	.size	__func__.33351, 24
__func__.33351:
	.string	"hisi_blk_freq_ctrl_init"
	.data
	.align	3
.LANCHOR2 = . + 0
	.type	freq_req_ops, %object
	.size	freq_req_ops, 40
freq_req_ops:
	.xword	0
	.xword	0
	.xword	0
	.xword	cpu_freq_request_add
	.xword	cpu_freq_request_remove
	.section	.rodata.str1.8,"aMS",%progbits,1
	.align	3
.LC0:
	.string	"\0013%s: kzalloc freq_ctrl_ptr error\n"
	.zero	5
.LC1:
	.string	"\0013%s: hisi blk freq ctrl init: io_wait_time_threshold=%d, remove_req_time=%dms\n"
.LC2:
	.string	"&(&freq_ctrl_ptr->lock)->rlock"
	.zero	1
.LC3:
	.string	"&freq_ctrl_ptr->m_lock"
	.zero	1
.LC4:
	.string	"\0013%s: malloc ddr req error\n"
	.zero	4
.LC5:
	.string	"%s"
	.zero	5
.LC6:
	.string	"hisi_block_freq_ctrl"
	.zero	3
.LC7:
	.string	"\0013%s: creat workqueue error\n"
	.bss
	.align	3
.LANCHOR0 = . + 0
	.type	freq_ctrl_ptr, %object
	.size	freq_ctrl_ptr, 8
freq_ctrl_ptr:
	.zero	8
	.type	__key.33353, %object
	.size	__key.33353, 0
__key.33353:
	.type	__key.33354, %object
	.size	__key.33354, 0
__key.33354:
	.text
.Letext0:
	.file 7 "/mnt/disk/jenkins/ci/workspace/chipset_YAL_patch_01/opensource/component_code/vendor/huawei/extra/build/build_script/kirin_kernel_release/kernel/include/uapi/asm-generic/int-ll64.h"
	.file 8 "/mnt/disk/jenkins/ci/workspace/chipset_YAL_patch_01/opensource/component_code/vendor/huawei/extra/build/build_script/kirin_kernel_release/kernel/include/asm-generic/int-ll64.h"
	.file 9 "/mnt/disk/jenkins/ci/workspace/chipset_YAL_patch_01/opensource/component_code/vendor/huawei/extra/build/build_script/kirin_kernel_release/kernel/include/uapi/asm-generic/posix_types.h"
	.file 10 "/mnt/disk/jenkins/ci/workspace/chipset_YAL_patch_01/opensource/component_code/vendor/huawei/extra/build/build_script/kirin_kernel_release/kernel/include/linux/types.h"
	.file 11 "/mnt/disk/jenkins/ci/workspace/chipset_YAL_patch_01/opensource/component_code/vendor/huawei/extra/build/build_script/kirin_kernel_release/kernel/include/linux/plist.h"
	.file 12 "/mnt/disk/jenkins/ci/workspace/chipset_YAL_patch_01/opensource/component_code/vendor/huawei/extra/build/build_script/kirin_kernel_release/kernel/arch/arm64/include/asm/spinlock_types.h"
	.file 13 "/mnt/disk/jenkins/ci/workspace/chipset_YAL_patch_01/opensource/component_code/vendor/huawei/extra/build/build_script/kirin_kernel_release/kernel/include/linux/spinlock_types.h"
	.file 14 "/mnt/disk/jenkins/ci/workspace/chipset_YAL_patch_01/opensource/component_code/vendor/huawei/extra/build/build_script/kirin_kernel_release/kernel/include/linux/rwlock_types.h"
	.file 15 "/mnt/disk/jenkins/ci/workspace/chipset_YAL_patch_01/opensource/component_code/vendor/huawei/extra/build/build_script/kirin_kernel_release/kernel/include/asm-generic/atomic-long.h"
	.file 16 "/mnt/disk/jenkins/ci/workspace/chipset_YAL_patch_01/opensource/component_code/vendor/huawei/extra/build/build_script/kirin_kernel_release/kernel/arch/arm64/include/uapi/asm/ptrace.h"
	.file 17 "/mnt/disk/jenkins/ci/workspace/chipset_YAL_patch_01/opensource/component_code/vendor/huawei/extra/build/build_script/kirin_kernel_release/kernel/arch/arm64/include/asm/ptrace.h"
	.file 18 "/mnt/disk/jenkins/ci/workspace/chipset_YAL_patch_01/opensource/component_code/vendor/huawei/extra/build/build_script/kirin_kernel_release/kernel/arch/arm64/include/asm/fpsimd.h"
	.file 19 "/mnt/disk/jenkins/ci/workspace/chipset_YAL_patch_01/opensource/component_code/vendor/huawei/extra/build/build_script/kirin_kernel_release/kernel/include/linux/jump_label.h"
	.file 20 "/mnt/disk/jenkins/ci/workspace/chipset_YAL_patch_01/opensource/component_code/vendor/huawei/extra/build/build_script/kirin_kernel_release/kernel/arch/arm64/include/asm/hw_breakpoint.h"
	.file 21 "/mnt/disk/jenkins/ci/workspace/chipset_YAL_patch_01/opensource/component_code/vendor/huawei/extra/build/build_script/kirin_kernel_release/kernel/arch/arm64/include/asm/processor.h"
	.file 22 "/mnt/disk/jenkins/ci/workspace/chipset_YAL_patch_01/opensource/component_code/vendor/huawei/extra/build/build_script/kirin_kernel_release/kernel/include/linux/perf_event.h"
	.file 23 "/mnt/disk/jenkins/ci/workspace/chipset_YAL_patch_01/opensource/component_code/vendor/huawei/extra/build/build_script/kirin_kernel_release/kernel/include/linux/osq_lock.h"
	.file 24 "/mnt/disk/jenkins/ci/workspace/chipset_YAL_patch_01/opensource/component_code/vendor/huawei/extra/build/build_script/kirin_kernel_release/kernel/include/linux/mutex.h"
	.file 25 "/mnt/disk/jenkins/ci/workspace/chipset_YAL_patch_01/opensource/component_code/vendor/huawei/extra/build/build_script/kirin_kernel_release/kernel/include/linux/sched.h"
	.file 26 "/mnt/disk/jenkins/ci/workspace/chipset_YAL_patch_01/opensource/component_code/vendor/huawei/extra/build/build_script/kirin_kernel_release/kernel/include/linux/restart_block.h"
	.file 27 "/mnt/disk/jenkins/ci/workspace/chipset_YAL_patch_01/opensource/component_code/vendor/huawei/extra/build/build_script/kirin_kernel_release/kernel/include/uapi/linux/time.h"
	.file 28 "/mnt/disk/jenkins/ci/workspace/chipset_YAL_patch_01/opensource/component_code/vendor/huawei/extra/build/build_script/kirin_kernel_release/kernel/arch/arm64/include/asm/compat.h"
	.file 29 "/mnt/disk/jenkins/ci/workspace/chipset_YAL_patch_01/opensource/component_code/vendor/huawei/extra/build/build_script/kirin_kernel_release/kernel/include/uapi/asm-generic/poll.h"
	.file 30 "/mnt/disk/jenkins/ci/workspace/chipset_YAL_patch_01/opensource/component_code/vendor/huawei/extra/build/build_script/kirin_kernel_release/kernel/arch/arm64/include/asm/thread_info.h"
	.file 31 "/mnt/disk/jenkins/ci/workspace/chipset_YAL_patch_01/opensource/component_code/vendor/huawei/extra/build/build_script/kirin_kernel_release/kernel/include/linux/rwsem.h"
	.file 32 "/mnt/disk/jenkins/ci/workspace/chipset_YAL_patch_01/opensource/component_code/vendor/huawei/extra/build/build_script/kirin_kernel_release/kernel/include/linux/cpumask.h"
	.file 33 "/mnt/disk/jenkins/ci/workspace/chipset_YAL_patch_01/opensource/component_code/vendor/huawei/extra/build/build_script/kirin_kernel_release/kernel/include/linux/seqlock.h"
	.file 34 "/mnt/disk/jenkins/ci/workspace/chipset_YAL_patch_01/opensource/component_code/vendor/huawei/extra/build/build_script/kirin_kernel_release/kernel/include/linux/wait.h"
	.file 35 "/mnt/disk/jenkins/ci/workspace/chipset_YAL_patch_01/opensource/component_code/vendor/huawei/extra/build/build_script/kirin_kernel_release/kernel/include/linux/completion.h"
	.file 36 "/mnt/disk/jenkins/ci/workspace/chipset_YAL_patch_01/opensource/component_code/vendor/huawei/extra/build/build_script/kirin_kernel_release/kernel/include/linux/time64.h"
	.file 37 "/mnt/disk/jenkins/ci/workspace/chipset_YAL_patch_01/opensource/component_code/vendor/huawei/extra/build/build_script/kirin_kernel_release/kernel/include/linux/ktime.h"
	.file 38 "/mnt/disk/jenkins/ci/workspace/chipset_YAL_patch_01/opensource/component_code/vendor/huawei/extra/build/build_script/kirin_kernel_release/kernel/include/linux/timer.h"
	.file 39 "/mnt/disk/jenkins/ci/workspace/chipset_YAL_patch_01/opensource/component_code/vendor/huawei/extra/build/build_script/kirin_kernel_release/kernel/include/linux/rbtree.h"
	.file 40 "/mnt/disk/jenkins/ci/workspace/chipset_YAL_patch_01/opensource/component_code/vendor/huawei/extra/build/build_script/kirin_kernel_release/kernel/include/linux/uidgid.h"
	.file 41 "/mnt/disk/jenkins/ci/workspace/chipset_YAL_patch_01/opensource/component_code/vendor/huawei/extra/build/build_script/kirin_kernel_release/kernel/include/linux/sysctl.h"
	.file 42 "/mnt/disk/jenkins/ci/workspace/chipset_YAL_patch_01/opensource/component_code/vendor/huawei/extra/build/build_script/kirin_kernel_release/kernel/include/linux/notifier.h"
	.file 43 "/mnt/disk/jenkins/ci/workspace/chipset_YAL_patch_01/opensource/component_code/vendor/huawei/extra/build/build_script/kirin_kernel_release/kernel/include/linux/idr.h"
	.file 44 "/mnt/disk/jenkins/ci/workspace/chipset_YAL_patch_01/opensource/component_code/vendor/huawei/extra/build/build_script/kirin_kernel_release/kernel/include/linux/kernfs.h"
	.file 45 "/mnt/disk/jenkins/ci/workspace/chipset_YAL_patch_01/opensource/component_code/vendor/huawei/extra/build/build_script/kirin_kernel_release/kernel/include/linux/seq_file.h"
	.file 46 "/mnt/disk/jenkins/ci/workspace/chipset_YAL_patch_01/opensource/component_code/vendor/huawei/extra/build/build_script/kirin_kernel_release/kernel/include/linux/fs.h"
	.file 47 "/mnt/disk/jenkins/ci/workspace/chipset_YAL_patch_01/opensource/component_code/vendor/huawei/extra/build/build_script/kirin_kernel_release/kernel/include/linux/mm.h"
	.file 48 "/mnt/disk/jenkins/ci/workspace/chipset_YAL_patch_01/opensource/component_code/vendor/huawei/extra/build/build_script/kirin_kernel_release/kernel/include/linux/mm_types.h"
	.file 49 "/mnt/disk/jenkins/ci/workspace/chipset_YAL_patch_01/opensource/component_code/vendor/huawei/extra/build/build_script/kirin_kernel_release/kernel/include/linux/kobject_ns.h"
	.file 50 "/mnt/disk/jenkins/ci/workspace/chipset_YAL_patch_01/opensource/component_code/vendor/huawei/extra/build/build_script/kirin_kernel_release/kernel/include/linux/capability.h"
	.file 51 "/mnt/disk/jenkins/ci/workspace/chipset_YAL_patch_01/opensource/component_code/vendor/huawei/extra/build/build_script/kirin_kernel_release/kernel/include/linux/nodemask.h"
	.file 52 "/mnt/disk/jenkins/ci/workspace/chipset_YAL_patch_01/opensource/component_code/vendor/huawei/extra/build/build_script/kirin_kernel_release/kernel/include/linux/lockdep.h"
	.file 53 "/mnt/disk/jenkins/ci/workspace/chipset_YAL_patch_01/opensource/component_code/vendor/huawei/extra/build/build_script/kirin_kernel_release/kernel/include/linux/uprobes.h"
	.file 54 "/mnt/disk/jenkins/ci/workspace/chipset_YAL_patch_01/opensource/component_code/vendor/huawei/extra/build/build_script/kirin_kernel_release/kernel/arch/arm64/include/asm/pgtable-types.h"
	.file 55 "/mnt/disk/jenkins/ci/workspace/chipset_YAL_patch_01/opensource/component_code/vendor/huawei/extra/build/build_script/kirin_kernel_release/kernel/arch/arm64/include/asm/page.h"
	.file 56 "/mnt/disk/jenkins/ci/workspace/chipset_YAL_patch_01/opensource/component_code/vendor/huawei/extra/build/build_script/kirin_kernel_release/kernel/include/linux/llist.h"
	.file 57 "/mnt/disk/jenkins/ci/workspace/chipset_YAL_patch_01/opensource/component_code/vendor/huawei/extra/build/build_script/kirin_kernel_release/kernel/arch/arm64/include/asm/smp.h"
	.file 58 "/mnt/disk/jenkins/ci/workspace/chipset_YAL_patch_01/opensource/component_code/vendor/huawei/extra/build/build_script/kirin_kernel_release/kernel/arch/arm64/include/asm/mmu.h"
	.file 59 "/mnt/disk/jenkins/ci/workspace/chipset_YAL_patch_01/opensource/component_code/vendor/huawei/extra/build/build_script/kirin_kernel_release/kernel/include/linux/user_namespace.h"
	.file 60 "/mnt/disk/jenkins/ci/workspace/chipset_YAL_patch_01/opensource/component_code/vendor/huawei/extra/build/build_script/kirin_kernel_release/kernel/include/asm-generic/cputime_jiffies.h"
	.file 61 "/mnt/disk/jenkins/ci/workspace/chipset_YAL_patch_01/opensource/component_code/vendor/huawei/extra/build/build_script/kirin_kernel_release/kernel/include/uapi/asm-generic/signal.h"
	.file 62 "/mnt/disk/jenkins/ci/workspace/chipset_YAL_patch_01/opensource/component_code/vendor/huawei/extra/build/build_script/kirin_kernel_release/kernel/include/uapi/asm-generic/signal-defs.h"
	.file 63 "/mnt/disk/jenkins/ci/workspace/chipset_YAL_patch_01/opensource/component_code/vendor/huawei/extra/build/build_script/kirin_kernel_release/kernel/include/uapi/asm-generic/siginfo.h"
	.file 64 "/mnt/disk/jenkins/ci/workspace/chipset_YAL_patch_01/opensource/component_code/vendor/huawei/extra/build/build_script/kirin_kernel_release/kernel/include/linux/signal.h"
	.file 65 "/mnt/disk/jenkins/ci/workspace/chipset_YAL_patch_01/opensource/component_code/vendor/huawei/extra/build/build_script/kirin_kernel_release/kernel/include/linux/pid.h"
	.file 66 "/mnt/disk/jenkins/ci/workspace/chipset_YAL_patch_01/opensource/component_code/vendor/huawei/extra/build/build_script/kirin_kernel_release/kernel/include/linux/pid_namespace.h"
	.file 67 "/mnt/disk/jenkins/ci/workspace/chipset_YAL_patch_01/opensource/component_code/vendor/huawei/extra/build/build_script/kirin_kernel_release/kernel/include/linux/mmzone.h"
	.file 68 "/mnt/disk/jenkins/ci/workspace/chipset_YAL_patch_01/opensource/component_code/vendor/huawei/extra/build/build_script/kirin_kernel_release/kernel/include/linux/seccomp.h"
	.file 69 "/mnt/disk/jenkins/ci/workspace/chipset_YAL_patch_01/opensource/component_code/vendor/huawei/extra/build/build_script/kirin_kernel_release/kernel/include/uapi/linux/resource.h"
	.file 70 "/mnt/disk/jenkins/ci/workspace/chipset_YAL_patch_01/opensource/component_code/vendor/huawei/extra/build/build_script/kirin_kernel_release/kernel/include/linux/timerqueue.h"
	.file 71 "/mnt/disk/jenkins/ci/workspace/chipset_YAL_patch_01/opensource/component_code/vendor/huawei/extra/build/build_script/kirin_kernel_release/kernel/include/linux/hrtimer.h"
	.file 72 "/mnt/disk/jenkins/ci/workspace/chipset_YAL_patch_01/opensource/component_code/vendor/huawei/extra/build/build_script/kirin_kernel_release/kernel/include/linux/task_io_accounting.h"
	.file 73 "/mnt/disk/jenkins/ci/workspace/chipset_YAL_patch_01/opensource/component_code/vendor/huawei/extra/build/build_script/kirin_kernel_release/kernel/include/linux/assoc_array.h"
	.file 74 "/mnt/disk/jenkins/ci/workspace/chipset_YAL_patch_01/opensource/component_code/vendor/huawei/extra/build/build_script/kirin_kernel_release/kernel/include/linux/key.h"
	.file 75 "/mnt/disk/jenkins/ci/workspace/chipset_YAL_patch_01/opensource/component_code/vendor/huawei/extra/build/build_script/kirin_kernel_release/kernel/include/linux/cred.h"
	.file 76 "/mnt/disk/jenkins/ci/workspace/chipset_YAL_patch_01/opensource/component_code/vendor/huawei/extra/build/build_script/kirin_kernel_release/kernel/include/linux/percpu-refcount.h"
	.file 77 "/mnt/disk/jenkins/ci/workspace/chipset_YAL_patch_01/opensource/component_code/vendor/huawei/extra/build/build_script/kirin_kernel_release/kernel/include/linux/rcu_sync.h"
	.file 78 "/mnt/disk/jenkins/ci/workspace/chipset_YAL_patch_01/opensource/component_code/vendor/huawei/extra/build/build_script/kirin_kernel_release/kernel/include/linux/percpu-rwsem.h"
	.file 79 "/mnt/disk/jenkins/ci/workspace/chipset_YAL_patch_01/opensource/component_code/vendor/huawei/extra/build/build_script/kirin_kernel_release/kernel/include/linux/bpf-cgroup.h"
	.file 80 "/mnt/disk/jenkins/ci/workspace/chipset_YAL_patch_01/opensource/component_code/vendor/huawei/extra/build/build_script/kirin_kernel_release/kernel/include/linux/cgroup-defs.h"
	.file 81 "/mnt/disk/jenkins/ci/workspace/chipset_YAL_patch_01/opensource/component_code/vendor/huawei/extra/build/build_script/kirin_kernel_release/kernel/include/uapi/linux/taskstats.h"
	.file 82 "/mnt/disk/jenkins/ci/workspace/chipset_YAL_patch_01/opensource/component_code/vendor/huawei/extra/build/build_script/kirin_kernel_release/kernel/include/linux/nsproxy.h"
	.file 83 "/mnt/disk/jenkins/ci/workspace/chipset_YAL_patch_01/opensource/component_code/vendor/huawei/extra/build/build_script/kirin_kernel_release/kernel/include/linux/compat.h"
	.file 84 "/mnt/disk/jenkins/ci/workspace/chipset_YAL_patch_01/opensource/component_code/vendor/huawei/extra/build/build_script/kirin_kernel_release/kernel/include/linux/stat.h"
	.file 85 "/mnt/disk/jenkins/ci/workspace/chipset_YAL_patch_01/opensource/component_code/vendor/huawei/extra/build/build_script/kirin_kernel_release/kernel/include/linux/sysfs.h"
	.file 86 "/mnt/disk/jenkins/ci/workspace/chipset_YAL_patch_01/opensource/component_code/vendor/huawei/extra/build/build_script/kirin_kernel_release/kernel/include/linux/kobject.h"
	.file 87 "/mnt/disk/jenkins/ci/workspace/chipset_YAL_patch_01/opensource/component_code/vendor/huawei/extra/build/build_script/kirin_kernel_release/kernel/include/linux/kref.h"
	.file 88 "/mnt/disk/jenkins/ci/workspace/chipset_YAL_patch_01/opensource/component_code/vendor/huawei/extra/build/build_script/kirin_kernel_release/kernel/include/linux/klist.h"
	.file 89 "/mnt/disk/jenkins/ci/workspace/chipset_YAL_patch_01/opensource/component_code/vendor/huawei/extra/build/build_script/kirin_kernel_release/kernel/include/linux/list_bl.h"
	.file 90 "/mnt/disk/jenkins/ci/workspace/chipset_YAL_patch_01/opensource/component_code/vendor/huawei/extra/build/build_script/kirin_kernel_release/kernel/include/linux/lockref.h"
	.file 91 "/mnt/disk/jenkins/ci/workspace/chipset_YAL_patch_01/opensource/component_code/vendor/huawei/extra/build/build_script/kirin_kernel_release/kernel/include/linux/dcache.h"
	.file 92 "/mnt/disk/jenkins/ci/workspace/chipset_YAL_patch_01/opensource/component_code/vendor/huawei/extra/build/build_script/kirin_kernel_release/kernel/include/linux/path.h"
	.file 93 "/mnt/disk/jenkins/ci/workspace/chipset_YAL_patch_01/opensource/component_code/vendor/huawei/extra/build/build_script/kirin_kernel_release/kernel/include/linux/shrinker.h"
	.file 94 "/mnt/disk/jenkins/ci/workspace/chipset_YAL_patch_01/opensource/component_code/vendor/huawei/extra/build/build_script/kirin_kernel_release/kernel/include/linux/list_lru.h"
	.file 95 "/mnt/disk/jenkins/ci/workspace/chipset_YAL_patch_01/opensource/component_code/vendor/huawei/extra/build/build_script/kirin_kernel_release/kernel/include/linux/radix-tree.h"
	.file 96 "/mnt/disk/jenkins/ci/workspace/chipset_YAL_patch_01/opensource/component_code/vendor/huawei/extra/build/build_script/kirin_kernel_release/kernel/include/uapi/linux/fiemap.h"
	.file 97 "/mnt/disk/jenkins/ci/workspace/chipset_YAL_patch_01/opensource/component_code/vendor/huawei/extra/build/build_script/kirin_kernel_release/kernel/include/linux/migrate_mode.h"
	.file 98 "/mnt/disk/jenkins/ci/workspace/chipset_YAL_patch_01/opensource/component_code/vendor/huawei/extra/build/build_script/kirin_kernel_release/kernel/include/linux/bvec.h"
	.file 99 "/mnt/disk/jenkins/ci/workspace/chipset_YAL_patch_01/opensource/component_code/vendor/huawei/extra/build/build_script/kirin_kernel_release/kernel/include/linux/delayed_call.h"
	.file 100 "/mnt/disk/jenkins/ci/workspace/chipset_YAL_patch_01/opensource/component_code/vendor/huawei/extra/build/build_script/kirin_kernel_release/kernel/include/linux/percpu_counter.h"
	.file 101 "/mnt/disk/jenkins/ci/workspace/chipset_YAL_patch_01/opensource/component_code/vendor/huawei/extra/build/build_script/kirin_kernel_release/kernel/include/linux/quota.h"
	.file 102 "/mnt/disk/jenkins/ci/workspace/chipset_YAL_patch_01/opensource/component_code/vendor/huawei/extra/build/build_script/kirin_kernel_release/kernel/include/linux/projid.h"
	.file 103 "/mnt/disk/jenkins/ci/workspace/chipset_YAL_patch_01/opensource/component_code/vendor/huawei/extra/build/build_script/kirin_kernel_release/kernel/include/linux/uio.h"
	.file 104 "/mnt/disk/jenkins/ci/workspace/chipset_YAL_patch_01/opensource/component_code/vendor/huawei/extra/build/build_script/kirin_kernel_release/kernel/include/linux/nfs_fs_i.h"
	.file 105 "/mnt/disk/jenkins/ci/workspace/chipset_YAL_patch_01/opensource/component_code/vendor/huawei/extra/build/build_script/kirin_kernel_release/kernel/include/linux/poll.h"
	.file 106 "/mnt/disk/jenkins/ci/workspace/chipset_YAL_patch_01/opensource/component_code/vendor/huawei/extra/build/build_script/kirin_kernel_release/kernel/include/linux/pinctrl/devinfo.h"
	.file 107 "/mnt/disk/jenkins/ci/workspace/chipset_YAL_patch_01/opensource/component_code/vendor/huawei/extra/build/build_script/kirin_kernel_release/kernel/include/linux/pm.h"
	.file 108 "/mnt/disk/jenkins/ci/workspace/chipset_YAL_patch_01/opensource/component_code/vendor/huawei/extra/build/build_script/kirin_kernel_release/kernel/include/linux/device.h"
	.file 109 "/mnt/disk/jenkins/ci/workspace/chipset_YAL_patch_01/opensource/component_code/vendor/huawei/extra/build/build_script/kirin_kernel_release/kernel/include/linux/pm_wakeup.h"
	.file 110 "/mnt/disk/jenkins/ci/workspace/chipset_YAL_patch_01/opensource/component_code/vendor/huawei/extra/build/build_script/kirin_kernel_release/kernel/include/linux/pm_qos.h"
	.file 111 "/mnt/disk/jenkins/ci/workspace/chipset_YAL_patch_01/opensource/component_code/vendor/huawei/extra/build/build_script/kirin_kernel_release/kernel/arch/arm64/include/asm/device.h"
	.file 112 "/mnt/disk/jenkins/ci/workspace/chipset_YAL_patch_01/opensource/component_code/vendor/huawei/extra/build/build_script/kirin_kernel_release/kernel/include/linux/tracepoint-defs.h"
	.file 113 "/mnt/disk/jenkins/ci/workspace/chipset_YAL_patch_01/opensource/component_code/vendor/huawei/extra/build/build_script/kirin_kernel_release/kernel/include/linux/vm_event_item.h"
	.file 114 "/mnt/disk/jenkins/ci/workspace/chipset_YAL_patch_01/opensource/component_code/vendor/huawei/extra/build/build_script/kirin_kernel_release/kernel/include/linux/vmstat.h"
	.file 115 "/mnt/disk/jenkins/ci/workspace/chipset_YAL_patch_01/opensource/component_code/vendor/huawei/extra/build/build_script/kirin_kernel_release/kernel/include/linux/seq_buf.h"
	.file 116 "/mnt/disk/jenkins/ci/workspace/chipset_YAL_patch_01/opensource/component_code/vendor/huawei/extra/build/build_script/kirin_kernel_release/kernel/include/linux/trace_seq.h"
	.file 117 "/mnt/disk/jenkins/ci/workspace/chipset_YAL_patch_01/opensource/component_code/vendor/huawei/extra/build/build_script/kirin_kernel_release/kernel/include/uapi/linux/perf_event.h"
	.file 118 "/mnt/disk/jenkins/ci/workspace/chipset_YAL_patch_01/opensource/component_code/vendor/huawei/extra/build/build_script/kirin_kernel_release/kernel/include/asm-generic/local.h"
	.file 119 "/mnt/disk/jenkins/ci/workspace/chipset_YAL_patch_01/opensource/component_code/vendor/huawei/extra/build/build_script/kirin_kernel_release/kernel/include/asm-generic/local64.h"
	.file 120 "/mnt/disk/jenkins/ci/workspace/chipset_YAL_patch_01/opensource/component_code/vendor/huawei/extra/build/build_script/kirin_kernel_release/kernel/include/linux/cgroup.h"
	.file 121 "/mnt/disk/jenkins/ci/workspace/chipset_YAL_patch_01/opensource/component_code/vendor/huawei/extra/build/build_script/kirin_kernel_release/kernel/include/linux/ns_common.h"
	.file 122 "/mnt/disk/jenkins/ci/workspace/chipset_YAL_patch_01/opensource/component_code/vendor/huawei/extra/build/build_script/kirin_kernel_release/kernel/include/uapi/linux/uio.h"
	.file 123 "/mnt/disk/jenkins/ci/workspace/chipset_YAL_patch_01/opensource/component_code/vendor/huawei/extra/build/build_script/kirin_kernel_release/kernel/include/linux/ftrace.h"
	.file 124 "/mnt/disk/jenkins/ci/workspace/chipset_YAL_patch_01/opensource/component_code/vendor/huawei/extra/build/build_script/kirin_kernel_release/kernel/include/linux/irq_work.h"
	.file 125 "/mnt/disk/jenkins/ci/workspace/chipset_YAL_patch_01/opensource/component_code/vendor/huawei/extra/build/build_script/kirin_kernel_release/kernel/include/linux/perf_regs.h"
	.file 126 "/mnt/disk/jenkins/ci/workspace/chipset_YAL_patch_01/opensource/component_code/vendor/huawei/extra/build/build_script/kirin_kernel_release/kernel/include/linux/trace_events.h"
	.file 127 "/mnt/disk/jenkins/ci/workspace/chipset_YAL_patch_01/opensource/component_code/vendor/huawei/extra/build/build_script/kirin_kernel_release/kernel/include/linux/bootdevice.h"
	.file 128 "/mnt/disk/jenkins/ci/workspace/chipset_YAL_patch_01/opensource/component_code/vendor/huawei/extra/build/build_script/kirin_kernel_release/kernel/include/asm-generic/bitops/builtin-__fls.h"
	.file 129 "/mnt/disk/jenkins/ci/workspace/chipset_YAL_patch_01/opensource/component_code/vendor/huawei/extra/build/build_script/kirin_kernel_release/kernel/include/asm-generic/bitops/fls64.h"
	.file 130 "/mnt/disk/jenkins/ci/workspace/chipset_YAL_patch_01/opensource/component_code/vendor/huawei/extra/build/build_script/kirin_kernel_release/kernel/include/linux/jiffies.h"
	.file 131 "/mnt/disk/jenkins/ci/workspace/chipset_YAL_patch_01/opensource/component_code/vendor/huawei/extra/build/build_script/kirin_kernel_release/kernel/include/linux/log2.h"
	.file 132 "/mnt/disk/jenkins/ci/workspace/chipset_YAL_patch_01/opensource/component_code/vendor/huawei/extra/build/build_script/kirin_kernel_release/kernel/include/asm-generic/getorder.h"
	.file 133 "/mnt/disk/jenkins/ci/workspace/chipset_YAL_patch_01/opensource/component_code/vendor/huawei/extra/build/build_script/kirin_kernel_release/kernel/arch/arm64/include/asm/cachetype.h"
	.file 134 "/mnt/disk/jenkins/ci/workspace/chipset_YAL_patch_01/opensource/component_code/vendor/huawei/extra/build/build_script/kirin_kernel_release/kernel/include/linux/printk.h"
	.file 135 "/mnt/disk/jenkins/ci/workspace/chipset_YAL_patch_01/opensource/component_code/vendor/huawei/extra/build/build_script/kirin_kernel_release/kernel/include/linux/kernel.h"
	.file 136 "/mnt/disk/jenkins/ci/workspace/chipset_YAL_patch_01/opensource/component_code/vendor/huawei/extra/build/build_script/kirin_kernel_release/kernel/arch/arm64/include/asm/hwcap.h"
	.file 137 "/mnt/disk/jenkins/ci/workspace/chipset_YAL_patch_01/opensource/component_code/vendor/huawei/extra/build/build_script/kirin_kernel_release/kernel/arch/arm64/include/asm/cpufeature.h"
	.file 138 "/mnt/disk/jenkins/ci/workspace/chipset_YAL_patch_01/opensource/component_code/vendor/huawei/extra/build/build_script/kirin_kernel_release/kernel/arch/arm64/include/asm/virt.h"
	.file 139 "/mnt/disk/jenkins/ci/workspace/chipset_YAL_patch_01/opensource/component_code/vendor/huawei/extra/build/build_script/kirin_kernel_release/kernel/arch/arm64/include/asm/stack_pointer.h"
	.file 140 "/mnt/disk/jenkins/ci/workspace/chipset_YAL_patch_01/opensource/component_code/vendor/huawei/extra/build/build_script/kirin_kernel_release/kernel/arch/arm64/include/asm/arch_timer.h"
	.file 141 "/mnt/disk/jenkins/ci/workspace/chipset_YAL_patch_01/opensource/component_code/vendor/huawei/extra/build/build_script/kirin_kernel_release/kernel/include/linux/highuid.h"
	.file 142 "/mnt/disk/jenkins/ci/workspace/chipset_YAL_patch_01/opensource/component_code/vendor/huawei/extra/build/build_script/kirin_kernel_release/kernel/arch/arm64/include/asm/memory.h"
	.file 143 "/mnt/disk/jenkins/ci/workspace/chipset_YAL_patch_01/opensource/component_code/vendor/huawei/extra/build/build_script/kirin_kernel_release/kernel/include/asm-generic/percpu.h"
	.file 144 "/mnt/disk/jenkins/ci/workspace/chipset_YAL_patch_01/opensource/component_code/vendor/huawei/extra/build/build_script/kirin_kernel_release/kernel/include/linux/debug_locks.h"
	.file 145 "/mnt/disk/jenkins/ci/workspace/chipset_YAL_patch_01/opensource/component_code/vendor/huawei/extra/build/build_script/kirin_kernel_release/kernel/include/asm-generic/pgtable.h"
	.file 146 "/mnt/disk/jenkins/ci/workspace/chipset_YAL_patch_01/opensource/component_code/vendor/huawei/extra/build/build_script/kirin_kernel_release/kernel/arch/arm64/include/asm/irq.h"
	.file 147 "/mnt/disk/jenkins/ci/workspace/chipset_YAL_patch_01/opensource/component_code/vendor/huawei/extra/build/build_script/kirin_kernel_release/kernel/arch/arm64/include/asm/hardirq.h"
	.file 148 "/mnt/disk/jenkins/ci/workspace/chipset_YAL_patch_01/opensource/component_code/vendor/huawei/extra/build/build_script/kirin_kernel_release/kernel/include/linux/spinlock_api_smp.h"
	.section	.note.GNU-stack,"",%progbits
