	.cpu generic+fp+simd
	.file	"hisi_ufs_bkops.c"
	.text
.Ltext0:
	.cfi_sections	.debug_frame
	.align	2
	.type	ufshcd_bkops_status_query, %function
ufshcd_bkops_status_query:
.LFB2965:
	.file 1 "/mnt/disk/jenkins/ci/workspace/chipset_YAL_patch_01/opensource/component_code/vendor/huawei/extra/build/build_script/kirin_kernel_release/kernel/drivers/scsi/ufs/hisi_ufs_bkops.c"
	.loc 1 151 0
	.cfi_startproc
.LVL0:
	stp	x29, x30, [sp, -32]!
	.cfi_def_cfa_offset 32
	.cfi_offset 29, -32
	.cfi_offset 30, -24
	add	x29, sp, 0
	.cfi_def_cfa_register 29
	stp	x19, x20, [sp,16]
	.cfi_offset 19, -16
	.cfi_offset 20, -8
	.loc 1 151 0
	mov	x19, x0
	mov	x20, x1
.LBB33:
.LBB34:
	.file 2 "/mnt/disk/jenkins/ci/workspace/chipset_YAL_patch_01/opensource/component_code/vendor/huawei/extra/build/build_script/kirin_kernel_release/kernel/include/linux/pm_runtime.h"
	.loc 2 234 0
	ldr	x0, [x0,72]
.LVL1:
	mov	w1, 4
.LVL2:
	bl	__pm_runtime_resume
.LVL3:
.LBE34:
.LBE33:
	.loc 1 159 0
	ldr	x2, [x19,2728]
	mov	x1, x20
	mov	x0, x19
	ldr	x2, [x2]
	blr	x2
.LVL4:
	mov	w20, w0
.LVL5:
.LBB35:
.LBB36:
	.loc 2 250 0
	ldr	x0, [x19,72]
	mov	w1, 4
	bl	__pm_runtime_idle
.LVL6:
.LBE36:
.LBE35:
	.loc 1 175 0
	cbnz	w20, .L7
.L2:
	.loc 1 179 0
	mov	w0, w20
	ldp	x19, x20, [sp,16]
	.cfi_remember_state
	.cfi_restore 20
	.cfi_restore 19
.LVL7:
	ldp	x29, x30, [sp], 32
	.cfi_restore 30
	.cfi_restore 29
	.cfi_def_cfa 31, 0
	ret
.LVL8:
.L7:
	.cfi_restore_state
	.loc 1 176 0
	adrp	x0, .LC0
	add	x0, x0, :lo12:.LC0
	bl	printk
.LVL9:
	b	.L2
	.cfi_endproc
.LFE2965:
	.size	ufshcd_bkops_status_query, .-ufshcd_bkops_status_query
	.align	2
	.type	ufshcd_hynix_bkops_stop, %function
ufshcd_hynix_bkops_stop:
.LFB2964:
	.loc 1 139 0
	.cfi_startproc
.LVL10:
	stp	x29, x30, [sp, -48]!
	.cfi_def_cfa_offset 48
	.cfi_offset 29, -48
	.cfi_offset 30, -40
	.loc 1 141 0
	mov	w1, 4
	mov	w2, 18
	.loc 1 139 0
	add	x29, sp, 0
	.cfi_def_cfa_register 29
	str	x19, [sp,16]
	.cfi_offset 19, -32
	.loc 1 139 0
	adrp	x19, __stack_chk_guard
	.loc 1 140 0
	add	x5, x29, 48
	.loc 1 141 0
	mov	w3, 0
	mov	w4, 0
	.loc 1 139 0
	ldr	x6, [x19,#:lo12:__stack_chk_guard]
	.loc 1 140 0
	str	wzr, [x5,-12]!
.LVL11:
	.loc 1 139 0
	str	x6, [x29,40]
	.loc 1 141 0
	bl	ufshcd_query_attr_safe
.LVL12:
	.loc 1 143 0
	ldr	x2, [x29,40]
	ldr	x1, [x19,#:lo12:__stack_chk_guard]
	cmp	x2, x1
	bne	.L10
	ldr	x19, [sp,16]
	.cfi_remember_state
	.cfi_restore 19
	ldp	x29, x30, [sp], 48
	.cfi_restore 30
	.cfi_restore 29
	.cfi_def_cfa 31, 0
	ret
.L10:
	.cfi_restore_state
	bl	__stack_chk_fail
.LVL13:
	.cfi_endproc
.LFE2964:
	.size	ufshcd_hynix_bkops_stop, .-ufshcd_hynix_bkops_stop
	.align	2
	.type	ufshcd_hynix_bkops_start, %function
ufshcd_hynix_bkops_start:
.LFB2963:
	.loc 1 133 0
	.cfi_startproc
.LVL14:
	stp	x29, x30, [sp, -48]!
	.cfi_def_cfa_offset 48
	.cfi_offset 29, -48
	.cfi_offset 30, -40
	.loc 1 134 0
	mov	w4, 1
	.loc 1 135 0
	mov	w1, 4
	.loc 1 133 0
	add	x29, sp, 0
	.cfi_def_cfa_register 29
	str	x19, [sp,16]
	.cfi_offset 19, -32
	.loc 1 133 0
	adrp	x19, __stack_chk_guard
	.loc 1 134 0
	add	x5, x29, 48
	.loc 1 135 0
	mov	w2, 18
	mov	w3, 0
	.loc 1 133 0
	ldr	x6, [x19,#:lo12:__stack_chk_guard]
	.loc 1 134 0
	str	w4, [x5,-12]!
.LVL15:
	.loc 1 135 0
	mov	w4, 0
	.loc 1 133 0
	str	x6, [x29,40]
	.loc 1 135 0
	bl	ufshcd_query_attr_safe
.LVL16:
	.loc 1 137 0
	ldr	x2, [x29,40]
	ldr	x1, [x19,#:lo12:__stack_chk_guard]
	cmp	x2, x1
	bne	.L13
	ldr	x19, [sp,16]
	.cfi_remember_state
	.cfi_restore 19
	ldp	x29, x30, [sp], 48
	.cfi_restore 30
	.cfi_restore 29
	.cfi_def_cfa 31, 0
	ret
.L13:
	.cfi_restore_state
	bl	__stack_chk_fail
.LVL17:
	.cfi_endproc
.LFE2963:
	.size	ufshcd_hynix_bkops_start, .-ufshcd_hynix_bkops_start
	.align	2
	.type	ufshcd_hynix_bkops_query, %function
ufshcd_hynix_bkops_query:
.LFB2962:
	.loc 1 128 0
	.cfi_startproc
.LVL18:
	stp	x29, x30, [sp, -16]!
	.cfi_def_cfa_offset 16
	.cfi_offset 29, -16
	.cfi_offset 30, -8
	mov	x5, x1
	.loc 1 129 0
	mov	w2, 19
	.loc 1 128 0
	add	x29, sp, 0
	.cfi_def_cfa_register 29
	.loc 1 129 0
	mov	w1, 3
.LVL19:
	mov	w3, 0
	mov	w4, 0
	.loc 1 128 0
	.loc 1 129 0
	bl	ufshcd_query_attr_safe
.LVL20:
	.loc 1 131 0
	ldp	x29, x30, [sp], 16
	.cfi_restore 30
	.cfi_restore 29
	.cfi_def_cfa 31, 0
	ret
	.cfi_endproc
.LFE2962:
	.size	ufshcd_hynix_bkops_query, .-ufshcd_hynix_bkops_query
	.align	2
	.type	ufshcd_query_hi1861_bkops, %function
ufshcd_query_hi1861_bkops:
.LFB2958:
	.loc 1 43 0
	.cfi_startproc
.LVL21:
	stp	x29, x30, [sp, -96]!
	.cfi_def_cfa_offset 96
	.cfi_offset 29, -96
	.cfi_offset 30, -88
	add	x29, sp, 0
	.cfi_def_cfa_register 29
	stp	x21, x22, [sp,32]
	.cfi_offset 21, -64
	.cfi_offset 22, -56
	adrp	x22, __stack_chk_guard
	stp	x19, x20, [sp,16]
	stp	x23, x24, [sp,48]
	.cfi_offset 19, -80
	.cfi_offset 20, -72
	.cfi_offset 23, -48
	.cfi_offset 24, -40
	.loc 1 43 0
	ldr	x20, [x22,#:lo12:__stack_chk_guard]
	.loc 1 44 0
	str	xzr, [x29,72]
.LVL22:
	.loc 1 45 0
	str	xzr, [x29,80]
.LVL23:
	.loc 1 43 0
	str	x20, [x29,88]
	.loc 1 50 0
	cbz	x0, .L34
	mov	x19, x0
	.loc 1 52 0
	ldr	x0, [x0,64]
.LVL24:
	mov	x21, x2
	mov	w20, w1
	.loc 1 52 0 is_stmt 0 discriminator 1
	ldr	x0, [x0,120]
	bl	_raw_spin_lock_irqsave
.LVL25:
	.loc 1 53 0 is_stmt 1
	ldr	w1, [x19,376]
	.loc 1 54 0
	ldr	x2, [x19,64]
	.loc 1 53 0
	cmp	w1, 2
.LVL26:
.LBB37:
.LBB38:
	.file 3 "/mnt/disk/jenkins/ci/workspace/chipset_YAL_patch_01/opensource/component_code/vendor/huawei/extra/build/build_script/kirin_kernel_release/kernel/include/linux/spinlock.h"
	.loc 3 362 0
	mov	x1, x0
.LBE38:
.LBE37:
	.loc 1 53 0
	bne	.L35
.LBB40:
.LBB41:
	.loc 3 362 0
	ldr	x0, [x2,120]
.LVL27:
.LBE41:
.LBE40:
	.loc 1 60 0
	add	x23, x19, 2864
	.loc 1 61 0
	add	x24, x19, 720
.LBB43:
.LBB42:
	.loc 3 362 0
	bl	_raw_spin_unlock_irqrestore
.LVL28:
.LBE42:
.LBE43:
	.loc 1 60 0
	mov	x0, x23
	bl	mutex_lock
.LVL29:
	.loc 1 61 0
	mov	x0, x24
	bl	mutex_lock
.LVL30:
	.loc 1 63 0
	mov	x0, x19
	add	x1, x29, 72
	add	x2, x29, 80
	mov	w3, w20
	mov	w4, 0
	mov	w5, 0
	mov	w6, 0
	bl	ufshcd_init_query
.LVL31:
	.loc 1 65 0
	cmp	w20, 240
	bcc	.L19
	cmp	w20, 241
	bls	.L20
	cmp	w20, 242
	bne	.L19
	.loc 1 71 0
	ldr	x0, [x29,72]
	mov	w1, 1
	strb	w1, [x0]
	.loc 1 72 0
	cbz	x21, .L36
	.loc 1 88 0
	mov	x0, x19
	mov	w1, 1
	mov	w2, 1300
	bl	ufshcd_exec_dev_cmd
.LVL32:
	mov	w20, w0
.LVL33:
	.loc 1 90 0
	cbz	w0, .L26
.L22:
	.loc 1 91 0
	ldr	x0, [x19,72]
	adrp	x1, .LC3
	adrp	x2, .LANCHOR0
	add	x1, x1, :lo12:.LC3
	add	x2, x2, :lo12:.LANCHOR0
	mov	w3, w20
	bl	dev_err
.LVL34:
	.loc 1 93 0
	b	.L25
.LVL35:
.L20:
	.loc 1 68 0
	ldr	x3, [x29,72]
	mov	w4, -127
	.loc 1 88 0
	mov	x0, x19
	mov	w1, 1
	mov	w2, 1300
	.loc 1 68 0
	strb	w4, [x3]
	.loc 1 88 0
	bl	ufshcd_exec_dev_cmd
.LVL36:
	mov	w20, w0
.LVL37:
	.loc 1 90 0
	cbnz	w0, .L22
	.loc 1 96 0
	cbz	x21, .L25
.L26:
	ldr	x0, [x29,80]
.LVL38:
	.loc 1 97 0
	mov	w20, 0
	ldr	w0, [x0,16]
.LVL39:
	rev	w0, w0
	.loc 1 98 0 discriminator 2
	and	w0, w0, 255
	.loc 1 97 0
	str	w0, [x21]
.L25:
	.loc 1 102 0
	mov	x0, x24
	bl	mutex_unlock
.LVL40:
	.loc 1 103 0
	mov	x0, x23
	bl	mutex_unlock
.LVL41:
	.loc 1 104 0
	mov	w0, w20
.LVL42:
.L18:
	.loc 1 105 0
	ldr	x2, [x29,88]
	ldr	x1, [x22,#:lo12:__stack_chk_guard]
	cmp	x2, x1
	bne	.L37
	ldp	x19, x20, [sp,16]
	.cfi_remember_state
	.cfi_restore 20
	.cfi_restore 19
.LVL43:
	ldp	x21, x22, [sp,32]
	.cfi_restore 22
	.cfi_restore 21
.LVL44:
	ldp	x23, x24, [sp,48]
	.cfi_restore 24
	.cfi_restore 23
	ldp	x29, x30, [sp], 96
	.cfi_restore 30
	.cfi_restore 29
	.cfi_def_cfa 31, 0
	ret
.LVL45:
.L19:
	.cfi_restore_state
	.loc 1 81 0
	ldr	x0, [x19,72]
	adrp	x1, .LC2
	adrp	x2, .LANCHOR0
	mov	w3, w20
	add	x1, x1, :lo12:.LC2
	add	x2, x2, :lo12:.LANCHOR0
	.loc 1 84 0
	mov	w20, -22
.LVL46:
	.loc 1 81 0
	bl	dev_err
.LVL47:
	.loc 1 85 0
	b	.L25
.LVL48:
.L34:
	.loc 1 50 0 discriminator 1
#APP
// 50 "/mnt/disk/jenkins/ci/workspace/chipset_YAL_patch_01/opensource/component_code/vendor/huawei/extra/build/build_script/kirin_kernel_release/kernel/drivers/scsi/ufs/hisi_ufs_bkops.c" 1
	.pushsection __bug_table,"a"
	.align 2
	0:	.long 1f - 0b
	.pushsection .rodata.str,"aMS",@progbits,1
2:	.string "/mnt/disk/jenkins/ci/workspace/chipset_YAL_patch_01/opensource/component_code/vendor/huawei/extra/build/build_script/kirin_kernel_release/kernel/drivers/scsi/ufs/hisi_ufs_bkops.c"
	.popsection
	.long 2b - 0b
	.short 50
	.short 0
	.popsection
1:	brk 2048
// 0 "" 2
.LVL49:
#NO_APP
.L35:
.LBB44:
.LBB39:
	.loc 3 362 0
	ldr	x0, [x2,120]
.LVL50:
	bl	_raw_spin_unlock_irqrestore
.LVL51:
.LBE39:
.LBE44:
	.loc 1 55 0
	mov	w0, -16
	b	.L18
.L36:
	.loc 1 73 0
	ldr	x0, [x19,72]
	adrp	x1, .LC1
	adrp	x2, .LANCHOR0
	add	x1, x1, :lo12:.LC1
	add	x2, x2, :lo12:.LANCHOR0
	.loc 1 76 0
	mov	w20, -22
.LVL52:
	.loc 1 73 0
	bl	dev_err
.LVL53:
	.loc 1 77 0
	b	.L25
.LVL54:
.L37:
	.loc 1 105 0
	bl	__stack_chk_fail
.LVL55:
	.cfi_endproc
.LFE2958:
	.size	ufshcd_query_hi1861_bkops, .-ufshcd_query_hi1861_bkops
	.align	2
	.type	ufshcd_1861_bkops_stop, %function
ufshcd_1861_bkops_stop:
.LFB2961:
	.loc 1 117 0
	.cfi_startproc
.LVL56:
	stp	x29, x30, [sp, -16]!
	.cfi_def_cfa_offset 16
	.cfi_offset 29, -16
	.cfi_offset 30, -8
	.loc 1 118 0
	mov	w1, 241
	mov	x2, 0
	.loc 1 117 0
	add	x29, sp, 0
	.cfi_def_cfa_register 29
	.loc 1 118 0
	bl	ufshcd_query_hi1861_bkops
.LVL57:
	.loc 1 120 0
	ldp	x29, x30, [sp], 16
	.cfi_restore 30
	.cfi_restore 29
	.cfi_def_cfa 31, 0
	ret
	.cfi_endproc
.LFE2961:
	.size	ufshcd_1861_bkops_stop, .-ufshcd_1861_bkops_stop
	.align	2
	.type	ufshcd_1861_bkops_start, %function
ufshcd_1861_bkops_start:
.LFB2960:
	.loc 1 112 0
	.cfi_startproc
.LVL58:
	stp	x29, x30, [sp, -16]!
	.cfi_def_cfa_offset 16
	.cfi_offset 29, -16
	.cfi_offset 30, -8
	.loc 1 113 0
	mov	w1, 240
	mov	x2, 0
	.loc 1 112 0
	add	x29, sp, 0
	.cfi_def_cfa_register 29
	.loc 1 113 0
	bl	ufshcd_query_hi1861_bkops
.LVL59:
	.loc 1 115 0
	ldp	x29, x30, [sp], 16
	.cfi_restore 30
	.cfi_restore 29
	.cfi_def_cfa 31, 0
	ret
	.cfi_endproc
.LFE2960:
	.size	ufshcd_1861_bkops_start, .-ufshcd_1861_bkops_start
	.align	2
	.type	ufshcd_1861_bkops_query, %function
ufshcd_1861_bkops_query:
.LFB2959:
	.loc 1 107 0
	.cfi_startproc
.LVL60:
	stp	x29, x30, [sp, -16]!
	.cfi_def_cfa_offset 16
	.cfi_offset 29, -16
	.cfi_offset 30, -8
	mov	x2, x1
	.loc 1 108 0
	mov	w1, 242
.LVL61:
	.loc 1 107 0
	add	x29, sp, 0
	.cfi_def_cfa_register 29
	.loc 1 108 0
	bl	ufshcd_query_hi1861_bkops
.LVL62:
	.loc 1 110 0
	ldp	x29, x30, [sp], 16
	.cfi_restore 30
	.cfi_restore 29
	.cfi_def_cfa 31, 0
	ret
	.cfi_endproc
.LFE2959:
	.size	ufshcd_1861_bkops_query, .-ufshcd_1861_bkops_query
	.align	2
	.type	ufshcd_bkops_start_stop, %function
ufshcd_bkops_start_stop:
.LFB2968:
	.loc 1 232 0
	.cfi_startproc
.LVL63:
	stp	x29, x30, [sp, -32]!
	.cfi_def_cfa_offset 32
	.cfi_offset 29, -32
	.cfi_offset 30, -24
	add	x29, sp, 0
	.cfi_def_cfa_register 29
	stp	x19, x20, [sp,16]
	.cfi_offset 19, -16
	.cfi_offset 20, -8
	.loc 1 232 0
	mov	x19, x0
	.loc 1 236 0
	cbnz	w1, .L48
	ldr	x19, [x0,2736]
.LVL64:
.LBB59:
.LBB60:
.LBB61:
.LBB62:
.LBB63:
.LBB64:
	.file 4 "/mnt/disk/jenkins/ci/workspace/chipset_YAL_patch_01/opensource/component_code/vendor/huawei/extra/build/build_script/kirin_kernel_release/kernel/include/linux/timekeeping.h"
	.loc 4 228 0
	bl	ktime_get
.LVL65:
	mov	x20, x0
.LBE64:
.LBE63:
	.loc 1 211 0
	add	x19, x19, 328
.LVL66:
	ldr	w1, [x19,8]
	.loc 1 212 0
	mov	x0, x19
	.loc 1 211 0
	add	w1, w1, 1
	str	w1, [x19,8]
	.loc 1 212 0
	bl	hisi_bkops_update_dur
.LVL67:
.LBB65:
.LBB66:
	.loc 4 228 0
	bl	ktime_get
.LVL68:
.LBE66:
.LBE65:
	.loc 1 215 0
	sub	x0, x0, x20
.LVL69:
	.loc 1 216 0
	ldr	x1, [x19,96]
	cmp	x0, x1
	bls	.L44
	.loc 1 217 0
	str	x0, [x19,96]
.L44:
	.loc 1 221 0
	ldr	w2, [x19,8]
	.loc 1 219 0
	mov	w20, 0
.LVL70:
	.loc 1 220 0
	ldr	x3, [x19,104]
	sub	w1, w2, #1
	.loc 1 222 0
	uxtw	x2, w2
	.loc 1 221 0
	madd	x0, x1, x3, x0
.LVL71:
	.loc 1 222 0
	udiv	x0, x0, x2
	.loc 1 219 0
	str	x0, [x19,104]
.LVL72:
.L43:
.LBE62:
.LBE61:
.LBE60:
.LBE59:
	.loc 1 242 0
	mov	w0, w20
	ldp	x19, x20, [sp,16]
	.cfi_remember_state
	.cfi_restore 20
	.cfi_restore 19
.LVL73:
	ldp	x29, x30, [sp], 32
	.cfi_restore 30
	.cfi_restore 29
	.cfi_def_cfa 31, 0
	ret
.LVL74:
.L48:
	.cfi_restore_state
.LBB67:
.LBB68:
.LBB69:
.LBB70:
	.loc 2 234 0
	ldr	x0, [x0,72]
	mov	w1, 4
.LVL75:
	bl	__pm_runtime_resume
.LVL76:
.LBE70:
.LBE69:
	.loc 1 186 0
	ldr	x1, [x19,2728]
	mov	x0, x19
	ldr	x1, [x1,8]
	blr	x1
.LVL77:
	mov	w20, w0
.LVL78:
.LBB71:
.LBB72:
	.loc 2 250 0
	ldr	x0, [x19,72]
	mov	w1, 4
	bl	__pm_runtime_idle
.LVL79:
.LBE72:
.LBE71:
	.loc 1 188 0
	cbz	w20, .L43
	.loc 1 189 0
	adrp	x0, .LC4
	add	x0, x0, :lo12:.LC4
	bl	printk
.LVL80:
	b	.L43
.LBE68:
.LBE67:
	.cfi_endproc
.LFE2968:
	.size	ufshcd_bkops_start_stop, .-ufshcd_bkops_start_stop
	.align	2
	.type	hisi_ufs_is_bkops_id_match, %function
hisi_ufs_is_bkops_id_match:
.LFB2969:
	.loc 1 251 0
	.cfi_startproc
.LVL81:
	stp	x29, x30, [sp, -64]!
	.cfi_def_cfa_offset 64
	.cfi_offset 29, -64
	.cfi_offset 30, -56
	add	x29, sp, 0
	.cfi_def_cfa_register 29
	stp	x19, x20, [sp,16]
	stp	x21, x22, [sp,32]
	str	x23, [sp,48]
	.cfi_offset 19, -48
	.cfi_offset 20, -40
	.cfi_offset 21, -32
	.cfi_offset 22, -24
	.cfi_offset 23, -16
	.loc 1 253 0
	mov	w20, 0
	.loc 1 252 0
	ldrh	w4, [x0]
	cmp	w4, w1, uxth
	beq	.L59
.LVL82:
.L50:
	.loc 1 265 0
	mov	w0, w20
.LVL83:
	ldr	x23, [sp,48]
	.cfi_remember_state
	.cfi_restore 23
	ldp	x19, x20, [sp,16]
	.cfi_restore 20
	.cfi_restore 19
.LVL84:
	ldp	x21, x22, [sp,32]
	.cfi_restore 22
	.cfi_restore 21
.LVL85:
	ldp	x29, x30, [sp], 64
	.cfi_restore 30
	.cfi_restore 29
	.cfi_def_cfa 31, 0
	ret
.LVL86:
.L59:
	.cfi_restore_state
	.loc 1 256 0
	ldr	x23, [x0,8]
	mov	x19, x0
	mov	x21, x2
	mov	x22, x3
	.loc 1 255 0
	mov	x0, x23
.LVL87:
	bl	strlen
.LVL88:
	mov	x2, x0
	.loc 1 255 0 is_stmt 0 discriminator 1
	mov	x1, x23
	mov	x0, x21
	bl	strncmp
.LVL89:
	.loc 1 255 0
	cbz	w0, .L51
	.loc 1 257 0 is_stmt 1
	adrp	x0, .LC5
	mov	x1, x23
	add	x0, x0, :lo12:.LC5
	bl	strcmp
.LVL90:
	.loc 1 256 0
	cbnz	w0, .L50
.L51:
.LBB75:
.LBB76:
	.loc 1 260 0
	ldr	x19, [x19,16]
.LVL91:
	mov	x0, x22
	.loc 1 264 0
	mov	w20, 1
	.loc 1 260 0
	mov	x1, x19
	bl	strcmp
.LVL92:
	cbz	w0, .L50
	.loc 1 261 0
	adrp	x0, .LC6
	mov	x1, x19
	add	x0, x0, :lo12:.LC6
	bl	strcmp
.LVL93:
	.loc 1 260 0 discriminator 1
	cmp	w0, wzr
	cset	w20, eq
.LBE76:
.LBE75:
	.loc 1 265 0
	ldr	x23, [sp,48]
	.cfi_restore 23
	mov	w0, w20
	ldp	x19, x20, [sp,16]
	.cfi_restore 19
	.cfi_restore 20
	ldp	x21, x22, [sp,32]
	.cfi_restore 21
	.cfi_restore 22
.LVL94:
	ldp	x29, x30, [sp], 64
	.cfi_restore 29
	.cfi_restore 30
	.cfi_def_cfa 31, 0
	ret
	.cfi_endproc
.LFE2969:
	.size	hisi_ufs_is_bkops_id_match, .-hisi_ufs_is_bkops_id_match
	.align	2
	.global	hisi_ufs_manual_bkops_config
	.type	hisi_ufs_manual_bkops_config, %function
hisi_ufs_manual_bkops_config:
.LFB2971:
	.loc 1 306 0
	.cfi_startproc
.LVL95:
	stp	x29, x30, [sp, -96]!
	.cfi_def_cfa_offset 96
	.cfi_offset 29, -96
	.cfi_offset 30, -88
	add	x29, sp, 0
	.cfi_def_cfa_register 29
	stp	x19, x20, [sp,16]
	.cfi_offset 19, -80
	.cfi_offset 20, -72
	mov	x20, x0
	str	x27, [sp,80]
	stp	x21, x22, [sp,32]
	stp	x23, x24, [sp,48]
	stp	x25, x26, [sp,64]
	.cfi_offset 27, -16
	.cfi_offset 21, -64
	.cfi_offset 22, -56
	.cfi_offset 23, -48
	.cfi_offset 24, -40
	.cfi_offset 25, -32
	.cfi_offset 26, -24
	.loc 1 313 0
	mov	w0, 0
.LVL96:
	.loc 1 307 0
	ldr	x22, [x20]
	.loc 1 309 0
	ldr	x26, [x20,8]
.LVL97:
	.loc 1 311 0
	ldr	x1, [x22,1880]
	tbnz	x1, 0, .L81
.LVL98:
.L75:
	.loc 1 355 0
	ldp	x19, x20, [sp,16]
	.cfi_remember_state
	.cfi_restore 20
	.cfi_restore 19
.LVL99:
	ldp	x21, x22, [sp,32]
	.cfi_restore 22
	.cfi_restore 21
	ldp	x23, x24, [sp,48]
	.cfi_restore 24
	.cfi_restore 23
	ldp	x25, x26, [sp,64]
	.cfi_restore 26
	.cfi_restore 25
.LVL100:
	ldr	x27, [sp,80]
	.cfi_restore 27
	ldp	x29, x30, [sp], 96
	.cfi_restore 30
	.cfi_restore 29
	.cfi_def_cfa 31, 0
	ret
.LVL101:
.L81:
	.cfi_restore_state
.LBB83:
.LBB84:
	.loc 1 274 0
	add	x25, x22, 3648
	ldr	x19, [x22,6408]
.LVL102:
	.loc 1 274 0 is_stmt 0 discriminator 1
	add	x21, x25, 2760
	cmp	x19, x21
	beq	.L62
	ldrh	w27, [x22,6128]
	ldr	x24, [x20,280]
	ldr	x23, [x20,288]
	b	.L64
.L82:
	.loc 1 274 0 discriminator 2
	ldr	x19, [x19]
	.loc 1 274 0 discriminator 1
	cmp	x19, x21
	beq	.L62
.L64:
	.loc 1 277 0 is_stmt 1
	sub	x0, x19, #24
	mov	w1, w27
	mov	x2, x24
	mov	x3, x23
	bl	hisi_ufs_is_bkops_id_match
.LVL103:
	uxtb	w0, w0
	cbz	w0, .L82
.LVL104:
.L63:
.LBE84:
.LBE83:
	.loc 1 316 0
	adrp	x0, .LC7
	add	x0, x0, :lo12:.LC7
	bl	printk
.LVL105:
	.loc 1 317 0
	mov	w0, 0
	b	.L75
.LVL106:
.L62:
.LBB86:
.LBB85:
	.loc 1 283 0
	ldr	x19, [x22,6392]
.LVL107:
	.loc 1 283 0 is_stmt 0 discriminator 1
	add	x21, x25, 2744
	cmp	x21, x19
	beq	.L63
	ldr	x23, [x20,280]
	ldrh	w24, [x22,6128]
	ldr	x20, [x20,288]
.LVL108:
	b	.L66
.L83:
	.loc 1 283 0 discriminator 2
	ldr	x19, [x19]
	.loc 1 283 0 discriminator 1
	cmp	x21, x19
	beq	.L63
.L66:
	.loc 1 286 0 is_stmt 1
	sub	x0, x19, #24
	mov	w1, w24
	mov	x2, x23
	mov	x3, x20
	bl	hisi_ufs_is_bkops_id_match
.LVL109:
	uxtb	w0, w0
	cbz	w0, .L83
.LBE85:
.LBE86:
	.loc 1 315 0 discriminator 1
	ldrb	w0, [x25,2720]
	cbnz	w0, .L63
	.loc 1 320 0
	bl	hisi_bkops_alloc
.LVL110:
	mov	x19, x0
.LVL111:
	.loc 1 321 0
	cbz	x0, .L69
	.loc 1 324 0
	ldrh	w1, [x22,6128]
	cmp	w1, 2230
	beq	.L84
	.loc 1 334 0
	cmp	w1, 429
	adrp	x20, .LANCHOR1
	beq	.L85
.L71:
	.loc 1 344 0
	str	x19, [x22,6384]
	.loc 1 346 0
	add	x20, x20, :lo12:.LANCHOR1
	.loc 1 348 0
	mov	x0, 3600
	.loc 1 345 0
	str	x25, [x19,16]
	.loc 1 348 0
	str	x0, [x19,280]
	.loc 1 346 0
	add	x20, x20, 72
	.loc 1 347 0
	mov	w21, 1
	.loc 1 346 0
	str	x20, [x19,8]
	.loc 1 347 0
	str	w21, [x19,276]
	.loc 1 350 0
	mov	x0, x26
	mov	x1, x19
	ldr	x2, [x22,5592]
	bl	hisi_bkops_enable
.LVL112:
	cbnz	w0, .L69
	.loc 1 353 0
	strb	w21, [x25,2720]
	.loc 1 355 0
	ldp	x19, x20, [sp,16]
	.cfi_remember_state
	.cfi_restore 19
	.cfi_restore 20
.LVL113:
	ldp	x21, x22, [sp,32]
	.cfi_restore 21
	.cfi_restore 22
	ldp	x23, x24, [sp,48]
	.cfi_restore 23
	.cfi_restore 24
	ldp	x25, x26, [sp,64]
	.cfi_restore 25
	.cfi_restore 26
.LVL114:
	ldr	x27, [sp,80]
	.cfi_restore 27
	ldp	x29, x30, [sp], 96
	.cfi_restore 29
	.cfi_restore 30
	.cfi_def_cfa 31, 0
	ret
.LVL115:
.L84:
	.cfi_restore_state
	.loc 1 326 0
	ldr	x1, [x0,128]
	.loc 1 327 0
	adrp	x20, .LANCHOR1
	add	x2, x20, :lo12:.LANCHOR1
	.loc 1 325 0
	mov	w3, 2
	.loc 1 326 0
	orr	x1, x1, 56
	.loc 1 325 0
	str	w3, [x0]
	.loc 1 326 0
	str	x1, [x0,128]
	.loc 1 328 0
	mov	w1, 6
	.loc 1 327 0
	str	x2, [x22,6376]
	.loc 1 328 0
	add	x2, x2, 24
	bl	hisi_bkops_set_status_info
.LVL116:
	cbz	w0, .L71
.L69:
	.loc 1 322 0
	mov	w0, -1
	b	.L75
.LVL117:
.L85:
	.loc 1 337 0
	ldr	x1, [x0,128]
	.loc 1 338 0
	add	x2, x20, :lo12:.LANCHOR1
	.loc 1 336 0
	mov	w3, 3
	str	w3, [x0]
	.loc 1 337 0
	orr	x1, x1, 56
	str	x1, [x0,128]
	.loc 1 338 0
	add	x3, x2, 88
	.loc 1 339 0
	mov	w1, 2
	.loc 1 338 0
	str	x3, [x22,6376]
	.loc 1 339 0
	add	x2, x2, 112
	bl	hisi_bkops_set_status_info
.LVL118:
	cbz	w0, .L71
	.loc 1 322 0
	mov	w0, -1
	b	.L75
	.cfi_endproc
.LFE2971:
	.size	hisi_ufs_manual_bkops_config, .-hisi_ufs_manual_bkops_config
	.section	.rodata
	.align	3
.LANCHOR0 = . + 0
	.type	__func__.36849, %object
	.size	__func__.36849, 26
__func__.36849:
	.string	"ufshcd_query_hi1861_bkops"
	.data
	.align	3
.LANCHOR1 = . + 0
	.type	hi1861_bkops_ops, %object
	.size	hi1861_bkops_ops, 24
hi1861_bkops_ops:
	.xword	ufshcd_1861_bkops_query
	.xword	ufshcd_1861_bkops_start
	.xword	ufshcd_1861_bkops_stop
	.type	bkops_status_str_1861, %object
	.size	bkops_status_str_1861, 48
bkops_status_str_1861:
	.xword	.LC8
	.xword	.LC10
	.xword	.LC11
	.xword	.LC12
	.xword	.LC13
	.xword	.LC14
	.type	ufs_bkops_ops, %object
	.size	ufs_bkops_ops, 16
ufs_bkops_ops:
	.xword	ufshcd_bkops_start_stop
	.xword	ufshcd_bkops_status_query
	.type	hynix_bkops_ops, %object
	.size	hynix_bkops_ops, 24
hynix_bkops_ops:
	.xword	ufshcd_hynix_bkops_query
	.xword	ufshcd_hynix_bkops_start
	.xword	ufshcd_hynix_bkops_stop
	.type	bkops_status_str_hynix, %object
	.size	bkops_status_str_hynix, 16
bkops_status_str_hynix:
	.xword	.LC8
	.xword	.LC9
	.section	.rodata.str1.8,"aMS",%progbits,1
	.align	3
.LC0:
	.string	"\0013UFS bkops status query failed!\n"
	.zero	6
.LC1:
	.string	"%s: Invalid argument for read request\n"
	.zero	1
.LC2:
	.string	"%s: Expected query bkops opcode but got = %d\n"
	.zero	2
.LC3:
	.string	"%s: Sending bkops query failed, err = %d\n"
	.zero	6
.LC4:
	.string	"\0013UFS bkops start failed!\n"
	.zero	5
.LC5:
	.string	"HISI_UFS_MODEL_ANY"
	.zero	5
.LC6:
	.string	"HISI_UFS_REV_ANY"
	.zero	7
.LC7:
	.string	"\0013bkops not supported or has been enabled already!\n"
	.zero	4
.LC8:
	.string	"bkops none"
	.zero	5
.LC9:
	.string	"bkops needed"
	.zero	3
.LC10:
	.string	"bkops normal"
	.zero	3
.LC11:
	.string	"bkops urgent count"
	.zero	5
.LC12:
	.string	"bkops wl"
	.zero	7
.LC13:
	.string	"bkops not care"
	.zero	1
.LC14:
	.string	"bkops slc cache"
	.text
.Letext0:
	.file 5 "/mnt/disk/jenkins/ci/workspace/chipset_YAL_patch_01/opensource/component_code/vendor/huawei/extra/build/build_script/kirin_kernel_release/kernel/include/uapi/asm-generic/int-ll64.h"
	.file 6 "/mnt/disk/jenkins/ci/workspace/chipset_YAL_patch_01/opensource/component_code/vendor/huawei/extra/build/build_script/kirin_kernel_release/kernel/include/asm-generic/int-ll64.h"
	.file 7 "/mnt/disk/jenkins/ci/workspace/chipset_YAL_patch_01/opensource/component_code/vendor/huawei/extra/build/build_script/kirin_kernel_release/kernel/include/uapi/asm-generic/posix_types.h"
	.file 8 "/mnt/disk/jenkins/ci/workspace/chipset_YAL_patch_01/opensource/component_code/vendor/huawei/extra/build/build_script/kirin_kernel_release/kernel/include/uapi/linux/types.h"
	.file 9 "/mnt/disk/jenkins/ci/workspace/chipset_YAL_patch_01/opensource/component_code/vendor/huawei/extra/build/build_script/kirin_kernel_release/kernel/include/linux/types.h"
	.file 10 "/mnt/disk/jenkins/ci/workspace/chipset_YAL_patch_01/opensource/component_code/vendor/huawei/extra/build/build_script/kirin_kernel_release/kernel/include/linux/export.h"
	.file 11 "/mnt/disk/jenkins/ci/workspace/chipset_YAL_patch_01/opensource/component_code/vendor/huawei/extra/build/build_script/kirin_kernel_release/kernel/arch/arm64/include/asm/spinlock_types.h"
	.file 12 "/mnt/disk/jenkins/ci/workspace/chipset_YAL_patch_01/opensource/component_code/vendor/huawei/extra/build/build_script/kirin_kernel_release/kernel/include/linux/spinlock_types.h"
	.file 13 "/mnt/disk/jenkins/ci/workspace/chipset_YAL_patch_01/opensource/component_code/vendor/huawei/extra/build/build_script/kirin_kernel_release/kernel/include/linux/rwlock_types.h"
	.file 14 "/mnt/disk/jenkins/ci/workspace/chipset_YAL_patch_01/opensource/component_code/vendor/huawei/extra/build/build_script/kirin_kernel_release/kernel/include/asm-generic/bug.h"
	.file 15 "/mnt/disk/jenkins/ci/workspace/chipset_YAL_patch_01/opensource/component_code/vendor/huawei/extra/build/build_script/kirin_kernel_release/kernel/include/asm-generic/atomic-long.h"
	.file 16 "/mnt/disk/jenkins/ci/workspace/chipset_YAL_patch_01/opensource/component_code/vendor/huawei/extra/build/build_script/kirin_kernel_release/kernel/arch/arm64/include/uapi/asm/ptrace.h"
	.file 17 "/mnt/disk/jenkins/ci/workspace/chipset_YAL_patch_01/opensource/component_code/vendor/huawei/extra/build/build_script/kirin_kernel_release/kernel/arch/arm64/include/asm/fpsimd.h"
	.file 18 "/mnt/disk/jenkins/ci/workspace/chipset_YAL_patch_01/opensource/component_code/vendor/huawei/extra/build/build_script/kirin_kernel_release/kernel/include/linux/jump_label.h"
	.file 19 "/mnt/disk/jenkins/ci/workspace/chipset_YAL_patch_01/opensource/component_code/vendor/huawei/extra/build/build_script/kirin_kernel_release/kernel/arch/arm64/include/asm/processor.h"
	.file 20 "/mnt/disk/jenkins/ci/workspace/chipset_YAL_patch_01/opensource/component_code/vendor/huawei/extra/build/build_script/kirin_kernel_release/kernel/include/linux/osq_lock.h"
	.file 21 "/mnt/disk/jenkins/ci/workspace/chipset_YAL_patch_01/opensource/component_code/vendor/huawei/extra/build/build_script/kirin_kernel_release/kernel/include/linux/mutex.h"
	.file 22 "/mnt/disk/jenkins/ci/workspace/chipset_YAL_patch_01/opensource/component_code/vendor/huawei/extra/build/build_script/kirin_kernel_release/kernel/include/linux/sched.h"
	.file 23 "/mnt/disk/jenkins/ci/workspace/chipset_YAL_patch_01/opensource/component_code/vendor/huawei/extra/build/build_script/kirin_kernel_release/kernel/include/linux/restart_block.h"
	.file 24 "/mnt/disk/jenkins/ci/workspace/chipset_YAL_patch_01/opensource/component_code/vendor/huawei/extra/build/build_script/kirin_kernel_release/kernel/include/uapi/linux/time.h"
	.file 25 "/mnt/disk/jenkins/ci/workspace/chipset_YAL_patch_01/opensource/component_code/vendor/huawei/extra/build/build_script/kirin_kernel_release/kernel/arch/arm64/include/asm/compat.h"
	.file 26 "/mnt/disk/jenkins/ci/workspace/chipset_YAL_patch_01/opensource/component_code/vendor/huawei/extra/build/build_script/kirin_kernel_release/kernel/arch/arm64/include/asm/thread_info.h"
	.file 27 "/mnt/disk/jenkins/ci/workspace/chipset_YAL_patch_01/opensource/component_code/vendor/huawei/extra/build/build_script/kirin_kernel_release/kernel/include/linux/cpumask.h"
	.file 28 "/mnt/disk/jenkins/ci/workspace/chipset_YAL_patch_01/opensource/component_code/vendor/huawei/extra/build/build_script/kirin_kernel_release/kernel/include/linux/seqlock.h"
	.file 29 "/mnt/disk/jenkins/ci/workspace/chipset_YAL_patch_01/opensource/component_code/vendor/huawei/extra/build/build_script/kirin_kernel_release/kernel/include/linux/wait.h"
	.file 30 "/mnt/disk/jenkins/ci/workspace/chipset_YAL_patch_01/opensource/component_code/vendor/huawei/extra/build/build_script/kirin_kernel_release/kernel/include/linux/completion.h"
	.file 31 "/mnt/disk/jenkins/ci/workspace/chipset_YAL_patch_01/opensource/component_code/vendor/huawei/extra/build/build_script/kirin_kernel_release/kernel/include/linux/time64.h"
	.file 32 "/mnt/disk/jenkins/ci/workspace/chipset_YAL_patch_01/opensource/component_code/vendor/huawei/extra/build/build_script/kirin_kernel_release/kernel/include/linux/ktime.h"
	.file 33 "/mnt/disk/jenkins/ci/workspace/chipset_YAL_patch_01/opensource/component_code/vendor/huawei/extra/build/build_script/kirin_kernel_release/kernel/include/linux/idr.h"
	.file 34 "/mnt/disk/jenkins/ci/workspace/chipset_YAL_patch_01/opensource/component_code/vendor/huawei/extra/build/build_script/kirin_kernel_release/kernel/include/linux/rbtree.h"
	.file 35 "/mnt/disk/jenkins/ci/workspace/chipset_YAL_patch_01/opensource/component_code/vendor/huawei/extra/build/build_script/kirin_kernel_release/kernel/include/linux/kernfs.h"
	.file 36 "/mnt/disk/jenkins/ci/workspace/chipset_YAL_patch_01/opensource/component_code/vendor/huawei/extra/build/build_script/kirin_kernel_release/kernel/include/linux/seq_file.h"
	.file 37 "/mnt/disk/jenkins/ci/workspace/chipset_YAL_patch_01/opensource/component_code/vendor/huawei/extra/build/build_script/kirin_kernel_release/kernel/include/linux/fs.h"
	.file 38 "/mnt/disk/jenkins/ci/workspace/chipset_YAL_patch_01/opensource/component_code/vendor/huawei/extra/build/build_script/kirin_kernel_release/kernel/include/linux/mm.h"
	.file 39 "/mnt/disk/jenkins/ci/workspace/chipset_YAL_patch_01/opensource/component_code/vendor/huawei/extra/build/build_script/kirin_kernel_release/kernel/include/linux/mm_types.h"
	.file 40 "/mnt/disk/jenkins/ci/workspace/chipset_YAL_patch_01/opensource/component_code/vendor/huawei/extra/build/build_script/kirin_kernel_release/kernel/include/linux/kobject_ns.h"
	.file 41 "/mnt/disk/jenkins/ci/workspace/chipset_YAL_patch_01/opensource/component_code/vendor/huawei/extra/build/build_script/kirin_kernel_release/kernel/include/linux/capability.h"
	.file 42 "/mnt/disk/jenkins/ci/workspace/chipset_YAL_patch_01/opensource/component_code/vendor/huawei/extra/build/build_script/kirin_kernel_release/kernel/include/linux/plist.h"
	.file 43 "/mnt/disk/jenkins/ci/workspace/chipset_YAL_patch_01/opensource/component_code/vendor/huawei/extra/build/build_script/kirin_kernel_release/kernel/include/linux/nodemask.h"
	.file 44 "/mnt/disk/jenkins/ci/workspace/chipset_YAL_patch_01/opensource/component_code/vendor/huawei/extra/build/build_script/kirin_kernel_release/kernel/include/linux/rwsem.h"
	.file 45 "/mnt/disk/jenkins/ci/workspace/chipset_YAL_patch_01/opensource/component_code/vendor/huawei/extra/build/build_script/kirin_kernel_release/kernel/include/linux/lockdep.h"
	.file 46 "/mnt/disk/jenkins/ci/workspace/chipset_YAL_patch_01/opensource/component_code/vendor/huawei/extra/build/build_script/kirin_kernel_release/kernel/include/linux/uprobes.h"
	.file 47 "/mnt/disk/jenkins/ci/workspace/chipset_YAL_patch_01/opensource/component_code/vendor/huawei/extra/build/build_script/kirin_kernel_release/kernel/include/linux/timer.h"
	.file 48 "/mnt/disk/jenkins/ci/workspace/chipset_YAL_patch_01/opensource/component_code/vendor/huawei/extra/build/build_script/kirin_kernel_release/kernel/include/linux/uidgid.h"
	.file 49 "/mnt/disk/jenkins/ci/workspace/chipset_YAL_patch_01/opensource/component_code/vendor/huawei/extra/build/build_script/kirin_kernel_release/kernel/include/linux/workqueue.h"
	.file 50 "/mnt/disk/jenkins/ci/workspace/chipset_YAL_patch_01/opensource/component_code/vendor/huawei/extra/build/build_script/kirin_kernel_release/kernel/arch/arm64/include/asm/pgtable-types.h"
	.file 51 "/mnt/disk/jenkins/ci/workspace/chipset_YAL_patch_01/opensource/component_code/vendor/huawei/extra/build/build_script/kirin_kernel_release/kernel/arch/arm64/include/asm/page.h"
	.file 52 "/mnt/disk/jenkins/ci/workspace/chipset_YAL_patch_01/opensource/component_code/vendor/huawei/extra/build/build_script/kirin_kernel_release/kernel/include/linux/pfn.h"
	.file 53 "/mnt/disk/jenkins/ci/workspace/chipset_YAL_patch_01/opensource/component_code/vendor/huawei/extra/build/build_script/kirin_kernel_release/kernel/include/linux/llist.h"
	.file 54 "/mnt/disk/jenkins/ci/workspace/chipset_YAL_patch_01/opensource/component_code/vendor/huawei/extra/build/build_script/kirin_kernel_release/kernel/include/linux/smp.h"
	.file 55 "/mnt/disk/jenkins/ci/workspace/chipset_YAL_patch_01/opensource/component_code/vendor/huawei/extra/build/build_script/kirin_kernel_release/kernel/arch/arm64/include/asm/smp.h"
	.file 56 "/mnt/disk/jenkins/ci/workspace/chipset_YAL_patch_01/opensource/component_code/vendor/huawei/extra/build/build_script/kirin_kernel_release/kernel/arch/arm64/include/asm/mmu.h"
	.file 57 "/mnt/disk/jenkins/ci/workspace/chipset_YAL_patch_01/opensource/component_code/vendor/huawei/extra/build/build_script/kirin_kernel_release/kernel/include/asm-generic/cputime_jiffies.h"
	.file 58 "/mnt/disk/jenkins/ci/workspace/chipset_YAL_patch_01/opensource/component_code/vendor/huawei/extra/build/build_script/kirin_kernel_release/kernel/include/uapi/asm-generic/signal.h"
	.file 59 "/mnt/disk/jenkins/ci/workspace/chipset_YAL_patch_01/opensource/component_code/vendor/huawei/extra/build/build_script/kirin_kernel_release/kernel/include/uapi/asm-generic/signal-defs.h"
	.file 60 "/mnt/disk/jenkins/ci/workspace/chipset_YAL_patch_01/opensource/component_code/vendor/huawei/extra/build/build_script/kirin_kernel_release/kernel/include/uapi/asm-generic/siginfo.h"
	.file 61 "/mnt/disk/jenkins/ci/workspace/chipset_YAL_patch_01/opensource/component_code/vendor/huawei/extra/build/build_script/kirin_kernel_release/kernel/include/linux/signal.h"
	.file 62 "/mnt/disk/jenkins/ci/workspace/chipset_YAL_patch_01/opensource/component_code/vendor/huawei/extra/build/build_script/kirin_kernel_release/kernel/include/linux/pid.h"
	.file 63 "/mnt/disk/jenkins/ci/workspace/chipset_YAL_patch_01/opensource/component_code/vendor/huawei/extra/build/build_script/kirin_kernel_release/kernel/include/linux/mmzone.h"
	.file 64 "/mnt/disk/jenkins/ci/workspace/chipset_YAL_patch_01/opensource/component_code/vendor/huawei/extra/build/build_script/kirin_kernel_release/kernel/include/linux/notifier.h"
	.file 65 "/mnt/disk/jenkins/ci/workspace/chipset_YAL_patch_01/opensource/component_code/vendor/huawei/extra/build/build_script/kirin_kernel_release/kernel/include/linux/seccomp.h"
	.file 66 "/mnt/disk/jenkins/ci/workspace/chipset_YAL_patch_01/opensource/component_code/vendor/huawei/extra/build/build_script/kirin_kernel_release/kernel/include/uapi/linux/resource.h"
	.file 67 "/mnt/disk/jenkins/ci/workspace/chipset_YAL_patch_01/opensource/component_code/vendor/huawei/extra/build/build_script/kirin_kernel_release/kernel/include/linux/timerqueue.h"
	.file 68 "/mnt/disk/jenkins/ci/workspace/chipset_YAL_patch_01/opensource/component_code/vendor/huawei/extra/build/build_script/kirin_kernel_release/kernel/include/linux/hrtimer.h"
	.file 69 "/mnt/disk/jenkins/ci/workspace/chipset_YAL_patch_01/opensource/component_code/vendor/huawei/extra/build/build_script/kirin_kernel_release/kernel/include/linux/task_io_accounting.h"
	.file 70 "/mnt/disk/jenkins/ci/workspace/chipset_YAL_patch_01/opensource/component_code/vendor/huawei/extra/build/build_script/kirin_kernel_release/kernel/include/linux/assoc_array.h"
	.file 71 "/mnt/disk/jenkins/ci/workspace/chipset_YAL_patch_01/opensource/component_code/vendor/huawei/extra/build/build_script/kirin_kernel_release/kernel/include/linux/key.h"
	.file 72 "/mnt/disk/jenkins/ci/workspace/chipset_YAL_patch_01/opensource/component_code/vendor/huawei/extra/build/build_script/kirin_kernel_release/kernel/include/linux/cred.h"
	.file 73 "/mnt/disk/jenkins/ci/workspace/chipset_YAL_patch_01/opensource/component_code/vendor/huawei/extra/build/build_script/kirin_kernel_release/kernel/include/linux/percpu-refcount.h"
	.file 74 "/mnt/disk/jenkins/ci/workspace/chipset_YAL_patch_01/opensource/component_code/vendor/huawei/extra/build/build_script/kirin_kernel_release/kernel/include/linux/rcu_sync.h"
	.file 75 "/mnt/disk/jenkins/ci/workspace/chipset_YAL_patch_01/opensource/component_code/vendor/huawei/extra/build/build_script/kirin_kernel_release/kernel/include/linux/percpu-rwsem.h"
	.file 76 "/mnt/disk/jenkins/ci/workspace/chipset_YAL_patch_01/opensource/component_code/vendor/huawei/extra/build/build_script/kirin_kernel_release/kernel/include/linux/bpf-cgroup.h"
	.file 77 "/mnt/disk/jenkins/ci/workspace/chipset_YAL_patch_01/opensource/component_code/vendor/huawei/extra/build/build_script/kirin_kernel_release/kernel/include/linux/cgroup-defs.h"
	.file 78 "/mnt/disk/jenkins/ci/workspace/chipset_YAL_patch_01/opensource/component_code/vendor/huawei/extra/build/build_script/kirin_kernel_release/kernel/include/linux/bio.h"
	.file 79 "/mnt/disk/jenkins/ci/workspace/chipset_YAL_patch_01/opensource/component_code/vendor/huawei/extra/build/build_script/kirin_kernel_release/kernel/include/linux/blkdev.h"
	.file 80 "/mnt/disk/jenkins/ci/workspace/chipset_YAL_patch_01/opensource/component_code/vendor/huawei/extra/build/build_script/kirin_kernel_release/kernel/include/linux/backing-dev-defs.h"
	.file 81 "/mnt/disk/jenkins/ci/workspace/chipset_YAL_patch_01/opensource/component_code/vendor/huawei/extra/build/build_script/kirin_kernel_release/kernel/include/linux/iocontext.h"
	.file 82 "/mnt/disk/jenkins/ci/workspace/chipset_YAL_patch_01/opensource/component_code/vendor/huawei/extra/build/build_script/kirin_kernel_release/kernel/include/linux/stat.h"
	.file 83 "/mnt/disk/jenkins/ci/workspace/chipset_YAL_patch_01/opensource/component_code/vendor/huawei/extra/build/build_script/kirin_kernel_release/kernel/include/linux/sysfs.h"
	.file 84 "/mnt/disk/jenkins/ci/workspace/chipset_YAL_patch_01/opensource/component_code/vendor/huawei/extra/build/build_script/kirin_kernel_release/kernel/include/linux/kobject.h"
	.file 85 "/mnt/disk/jenkins/ci/workspace/chipset_YAL_patch_01/opensource/component_code/vendor/huawei/extra/build/build_script/kirin_kernel_release/kernel/include/linux/kref.h"
	.file 86 "/mnt/disk/jenkins/ci/workspace/chipset_YAL_patch_01/opensource/component_code/vendor/huawei/extra/build/build_script/kirin_kernel_release/kernel/include/linux/klist.h"
	.file 87 "/mnt/disk/jenkins/ci/workspace/chipset_YAL_patch_01/opensource/component_code/vendor/huawei/extra/build/build_script/kirin_kernel_release/kernel/include/linux/list_bl.h"
	.file 88 "/mnt/disk/jenkins/ci/workspace/chipset_YAL_patch_01/opensource/component_code/vendor/huawei/extra/build/build_script/kirin_kernel_release/kernel/include/linux/lockref.h"
	.file 89 "/mnt/disk/jenkins/ci/workspace/chipset_YAL_patch_01/opensource/component_code/vendor/huawei/extra/build/build_script/kirin_kernel_release/kernel/include/linux/dcache.h"
	.file 90 "/mnt/disk/jenkins/ci/workspace/chipset_YAL_patch_01/opensource/component_code/vendor/huawei/extra/build/build_script/kirin_kernel_release/kernel/include/linux/path.h"
	.file 91 "/mnt/disk/jenkins/ci/workspace/chipset_YAL_patch_01/opensource/component_code/vendor/huawei/extra/build/build_script/kirin_kernel_release/kernel/include/linux/shrinker.h"
	.file 92 "/mnt/disk/jenkins/ci/workspace/chipset_YAL_patch_01/opensource/component_code/vendor/huawei/extra/build/build_script/kirin_kernel_release/kernel/include/linux/list_lru.h"
	.file 93 "/mnt/disk/jenkins/ci/workspace/chipset_YAL_patch_01/opensource/component_code/vendor/huawei/extra/build/build_script/kirin_kernel_release/kernel/include/linux/radix-tree.h"
	.file 94 "/mnt/disk/jenkins/ci/workspace/chipset_YAL_patch_01/opensource/component_code/vendor/huawei/extra/build/build_script/kirin_kernel_release/kernel/include/uapi/linux/fiemap.h"
	.file 95 "/mnt/disk/jenkins/ci/workspace/chipset_YAL_patch_01/opensource/component_code/vendor/huawei/extra/build/build_script/kirin_kernel_release/kernel/include/linux/migrate_mode.h"
	.file 96 "/mnt/disk/jenkins/ci/workspace/chipset_YAL_patch_01/opensource/component_code/vendor/huawei/extra/build/build_script/kirin_kernel_release/kernel/include/linux/bvec.h"
	.file 97 "/mnt/disk/jenkins/ci/workspace/chipset_YAL_patch_01/opensource/component_code/vendor/huawei/extra/build/build_script/kirin_kernel_release/kernel/include/linux/blk_types.h"
	.file 98 "/mnt/disk/jenkins/ci/workspace/chipset_YAL_patch_01/opensource/component_code/vendor/huawei/extra/build/build_script/kirin_kernel_release/kernel/include/linux/delayed_call.h"
	.file 99 "/mnt/disk/jenkins/ci/workspace/chipset_YAL_patch_01/opensource/component_code/vendor/huawei/extra/build/build_script/kirin_kernel_release/kernel/include/linux/percpu_counter.h"
	.file 100 "/mnt/disk/jenkins/ci/workspace/chipset_YAL_patch_01/opensource/component_code/vendor/huawei/extra/build/build_script/kirin_kernel_release/kernel/include/linux/quota.h"
	.file 101 "/mnt/disk/jenkins/ci/workspace/chipset_YAL_patch_01/opensource/component_code/vendor/huawei/extra/build/build_script/kirin_kernel_release/kernel/include/linux/projid.h"
	.file 102 "/mnt/disk/jenkins/ci/workspace/chipset_YAL_patch_01/opensource/component_code/vendor/huawei/extra/build/build_script/kirin_kernel_release/kernel/include/linux/module.h"
	.file 103 "/mnt/disk/jenkins/ci/workspace/chipset_YAL_patch_01/opensource/component_code/vendor/huawei/extra/build/build_script/kirin_kernel_release/kernel/include/linux/genhd.h"
	.file 104 "/mnt/disk/jenkins/ci/workspace/chipset_YAL_patch_01/opensource/component_code/vendor/huawei/extra/build/build_script/kirin_kernel_release/kernel/include/linux/nfs_fs_i.h"
	.file 105 "/mnt/disk/jenkins/ci/workspace/chipset_YAL_patch_01/opensource/component_code/vendor/huawei/extra/build/build_script/kirin_kernel_release/kernel/include/linux/pinctrl/devinfo.h"
	.file 106 "/mnt/disk/jenkins/ci/workspace/chipset_YAL_patch_01/opensource/component_code/vendor/huawei/extra/build/build_script/kirin_kernel_release/kernel/include/linux/pm.h"
	.file 107 "/mnt/disk/jenkins/ci/workspace/chipset_YAL_patch_01/opensource/component_code/vendor/huawei/extra/build/build_script/kirin_kernel_release/kernel/include/linux/device.h"
	.file 108 "/mnt/disk/jenkins/ci/workspace/chipset_YAL_patch_01/opensource/component_code/vendor/huawei/extra/build/build_script/kirin_kernel_release/kernel/include/linux/pm_wakeup.h"
	.file 109 "/mnt/disk/jenkins/ci/workspace/chipset_YAL_patch_01/opensource/component_code/vendor/huawei/extra/build/build_script/kirin_kernel_release/kernel/arch/arm64/include/asm/device.h"
	.file 110 "/mnt/disk/jenkins/ci/workspace/chipset_YAL_patch_01/opensource/component_code/vendor/huawei/extra/build/build_script/kirin_kernel_release/kernel/include/linux/dma-mapping.h"
	.file 111 "/mnt/disk/jenkins/ci/workspace/chipset_YAL_patch_01/opensource/component_code/vendor/huawei/extra/build/build_script/kirin_kernel_release/kernel/include/linux/tracepoint-defs.h"
	.file 112 "/mnt/disk/jenkins/ci/workspace/chipset_YAL_patch_01/opensource/component_code/vendor/huawei/extra/build/build_script/kirin_kernel_release/kernel/include/linux/vmstat.h"
	.file 113 "/mnt/disk/jenkins/ci/workspace/chipset_YAL_patch_01/opensource/component_code/vendor/huawei/extra/build/build_script/kirin_kernel_release/kernel/arch/arm64/include/asm/uaccess.h"
	.file 114 "/mnt/disk/jenkins/ci/workspace/chipset_YAL_patch_01/opensource/component_code/vendor/huawei/extra/build/build_script/kirin_kernel_release/kernel/include/linux/flex_proportions.h"
	.file 115 "/mnt/disk/jenkins/ci/workspace/chipset_YAL_patch_01/opensource/component_code/vendor/huawei/extra/build/build_script/kirin_kernel_release/kernel/include/linux/mempool.h"
	.file 116 "/mnt/disk/jenkins/ci/workspace/chipset_YAL_patch_01/opensource/component_code/vendor/huawei/extra/build/build_script/kirin_kernel_release/kernel/include/linux/bsg.h"
	.file 117 "/mnt/disk/jenkins/ci/workspace/chipset_YAL_patch_01/opensource/component_code/vendor/huawei/extra/build/build_script/kirin_kernel_release/kernel/include/linux/wbt.h"
	.file 118 "/mnt/disk/jenkins/ci/workspace/chipset_YAL_patch_01/opensource/component_code/vendor/huawei/extra/build/build_script/kirin_kernel_release/kernel/include/linux/scatterlist.h"
	.file 119 "/mnt/disk/jenkins/ci/workspace/chipset_YAL_patch_01/opensource/component_code/vendor/huawei/extra/build/build_script/kirin_kernel_release/kernel/include/linux/elevator.h"
	.file 120 "/mnt/disk/jenkins/ci/workspace/chipset_YAL_patch_01/opensource/component_code/vendor/huawei/extra/build/build_script/kirin_kernel_release/kernel/include/linux/blk-mq.h"
	.file 121 "/mnt/disk/jenkins/ci/workspace/chipset_YAL_patch_01/opensource/component_code/vendor/huawei/extra/build/build_script/kirin_kernel_release/kernel/include/linux/sbitmap.h"
	.file 122 "/mnt/disk/jenkins/ci/workspace/chipset_YAL_patch_01/opensource/component_code/vendor/huawei/extra/build/build_script/kirin_kernel_release/kernel/include/scsi/scsi_host.h"
	.file 123 "/mnt/disk/jenkins/ci/workspace/chipset_YAL_patch_01/opensource/component_code/vendor/huawei/extra/build/build_script/kirin_kernel_release/kernel/include/scsi/scsi_device.h"
	.file 124 "/mnt/disk/jenkins/ci/workspace/chipset_YAL_patch_01/opensource/component_code/vendor/huawei/extra/build/build_script/kirin_kernel_release/kernel/include/scsi/scsi_cmnd.h"
	.file 125 "/mnt/disk/jenkins/ci/workspace/chipset_YAL_patch_01/opensource/component_code/vendor/huawei/extra/build/build_script/kirin_kernel_release/kernel/include/linux/hisi-bkops-core.h"
	.file 126 "/mnt/disk/jenkins/ci/workspace/chipset_YAL_patch_01/opensource/component_code/vendor/huawei/extra/build/build_script/kirin_kernel_release/kernel/include/linux/stddef.h"
	.file 127 "/mnt/disk/jenkins/ci/workspace/chipset_YAL_patch_01/opensource/component_code/vendor/huawei/extra/build/build_script/kirin_kernel_release/kernel/include/uapi/linux/elf.h"
	.file 128 "/mnt/disk/jenkins/ci/workspace/chipset_YAL_patch_01/opensource/component_code/vendor/huawei/extra/build/build_script/kirin_kernel_release/kernel/include/linux/moduleparam.h"
	.file 129 "/mnt/disk/jenkins/ci/workspace/chipset_YAL_patch_01/opensource/component_code/vendor/huawei/extra/build/build_script/kirin_kernel_release/kernel/include/linux/rbtree_latch.h"
	.file 130 "/mnt/disk/jenkins/ci/workspace/chipset_YAL_patch_01/opensource/component_code/vendor/huawei/extra/build/build_script/kirin_kernel_release/kernel/arch/arm64/include/asm/module.h"
	.file 131 "/mnt/disk/jenkins/ci/workspace/chipset_YAL_patch_01/opensource/component_code/vendor/huawei/extra/build/build_script/kirin_kernel_release/kernel/include/linux/kthread.h"
	.file 132 "/mnt/disk/jenkins/ci/workspace/chipset_YAL_patch_01/opensource/component_code/vendor/huawei/extra/build/build_script/kirin_kernel_release/kernel/include/linux/interrupt.h"
	.file 133 "/mnt/disk/jenkins/ci/workspace/chipset_YAL_patch_01/opensource/component_code/vendor/huawei/extra/build/build_script/kirin_kernel_release/kernel/include/linux/dma-direction.h"
	.file 134 "/mnt/disk/jenkins/ci/workspace/chipset_YAL_patch_01/opensource/component_code/vendor/huawei/extra/build/build_script/kirin_kernel_release/kernel/include/uapi/scsi/ufs/ufs.h"
	.file 135 "/mnt/disk/jenkins/ci/workspace/chipset_YAL_patch_01/opensource/component_code/vendor/huawei/extra/build/build_script/kirin_kernel_release/kernel/drivers/scsi/ufs/ufs.h"
	.file 136 "/mnt/disk/jenkins/ci/workspace/chipset_YAL_patch_01/opensource/component_code/vendor/huawei/extra/build/build_script/kirin_kernel_release/kernel/drivers/scsi/ufs/ufshci.h"
	.file 137 "/mnt/disk/jenkins/ci/workspace/chipset_YAL_patch_01/opensource/component_code/vendor/huawei/extra/build/build_script/kirin_kernel_release/kernel/drivers/scsi/ufs/ufshcd.h"
	.file 138 "/mnt/disk/jenkins/ci/workspace/chipset_YAL_patch_01/opensource/component_code/vendor/huawei/extra/build/build_script/kirin_kernel_release/kernel/drivers/scsi/ufs/hisi_ufs_bkops.h"
	.file 139 "/mnt/disk/jenkins/ci/workspace/chipset_YAL_patch_01/opensource/component_code/vendor/huawei/extra/build/build_script/kirin_kernel_release/kernel/include/uapi/linux/swab.h"
	.file 140 "/mnt/disk/jenkins/ci/workspace/chipset_YAL_patch_01/opensource/component_code/vendor/huawei/extra/build/build_script/kirin_kernel_release/kernel/arch/arm64/include/asm/cachetype.h"
	.file 141 "/mnt/disk/jenkins/ci/workspace/chipset_YAL_patch_01/opensource/component_code/vendor/huawei/extra/build/build_script/kirin_kernel_release/kernel/include/linux/printk.h"
	.file 142 "/mnt/disk/jenkins/ci/workspace/chipset_YAL_patch_01/opensource/component_code/vendor/huawei/extra/build/build_script/kirin_kernel_release/kernel/include/linux/kernel.h"
	.file 143 "/mnt/disk/jenkins/ci/workspace/chipset_YAL_patch_01/opensource/component_code/vendor/huawei/extra/build/build_script/kirin_kernel_release/kernel/arch/arm64/include/asm/hwcap.h"
	.file 144 "/mnt/disk/jenkins/ci/workspace/chipset_YAL_patch_01/opensource/component_code/vendor/huawei/extra/build/build_script/kirin_kernel_release/kernel/arch/arm64/include/asm/cpufeature.h"
	.file 145 "/mnt/disk/jenkins/ci/workspace/chipset_YAL_patch_01/opensource/component_code/vendor/huawei/extra/build/build_script/kirin_kernel_release/kernel/arch/arm64/include/asm/virt.h"
	.file 146 "/mnt/disk/jenkins/ci/workspace/chipset_YAL_patch_01/opensource/component_code/vendor/huawei/extra/build/build_script/kirin_kernel_release/kernel/arch/arm64/include/asm/stack_pointer.h"
	.file 147 "/mnt/disk/jenkins/ci/workspace/chipset_YAL_patch_01/opensource/component_code/vendor/huawei/extra/build/build_script/kirin_kernel_release/kernel/arch/arm64/include/asm/arch_timer.h"
	.file 148 "/mnt/disk/jenkins/ci/workspace/chipset_YAL_patch_01/opensource/component_code/vendor/huawei/extra/build/build_script/kirin_kernel_release/kernel/include/linux/jiffies.h"
	.file 149 "/mnt/disk/jenkins/ci/workspace/chipset_YAL_patch_01/opensource/component_code/vendor/huawei/extra/build/build_script/kirin_kernel_release/kernel/include/linux/highuid.h"
	.file 150 "/mnt/disk/jenkins/ci/workspace/chipset_YAL_patch_01/opensource/component_code/vendor/huawei/extra/build/build_script/kirin_kernel_release/kernel/arch/arm64/include/asm/memory.h"
	.file 151 "/mnt/disk/jenkins/ci/workspace/chipset_YAL_patch_01/opensource/component_code/vendor/huawei/extra/build/build_script/kirin_kernel_release/kernel/include/asm-generic/percpu.h"
	.file 152 "/mnt/disk/jenkins/ci/workspace/chipset_YAL_patch_01/opensource/component_code/vendor/huawei/extra/build/build_script/kirin_kernel_release/kernel/include/linux/slab.h"
	.file 153 "/mnt/disk/jenkins/ci/workspace/chipset_YAL_patch_01/opensource/component_code/vendor/huawei/extra/build/build_script/kirin_kernel_release/kernel/include/linux/debug_locks.h"
	.file 154 "/mnt/disk/jenkins/ci/workspace/chipset_YAL_patch_01/opensource/component_code/vendor/huawei/extra/build/build_script/kirin_kernel_release/kernel/include/asm-generic/pgtable.h"
	.file 155 "/mnt/disk/jenkins/ci/workspace/chipset_YAL_patch_01/opensource/component_code/vendor/huawei/extra/build/build_script/kirin_kernel_release/kernel/arch/arm64/include/asm/irq.h"
	.file 156 "/mnt/disk/jenkins/ci/workspace/chipset_YAL_patch_01/opensource/component_code/vendor/huawei/extra/build/build_script/kirin_kernel_release/kernel/arch/arm64/include/asm/hardirq.h"
	.file 157 "/mnt/disk/jenkins/ci/workspace/chipset_YAL_patch_01/opensource/component_code/vendor/huawei/extra/build/build_script/kirin_kernel_release/kernel/include/scsi/scsi_common.h"
	.file 158 "/mnt/disk/jenkins/ci/workspace/chipset_YAL_patch_01/opensource/component_code/vendor/huawei/extra/build/build_script/kirin_kernel_release/kernel/arch/arm64/include/../../arm/include/asm/xen/hypervisor.h"
	.file 159 "/mnt/disk/jenkins/ci/workspace/chipset_YAL_patch_01/opensource/component_code/vendor/huawei/extra/build/build_script/kirin_kernel_release/kernel/arch/arm64/include/asm/dma-mapping.h"
	.file 160 "/mnt/disk/jenkins/ci/workspace/chipset_YAL_patch_01/opensource/component_code/vendor/huawei/extra/build/build_script/kirin_kernel_release/kernel/include/linux/spinlock_api_smp.h"
	.file 161 "/mnt/disk/jenkins/ci/workspace/chipset_YAL_patch_01/opensource/component_code/vendor/huawei/extra/build/build_script/kirin_kernel_release/kernel/arch/arm64/include/asm/string.h"
	.section	.note.GNU-stack,"",%progbits
